---
triple:          'x86_64-apple-darwin'
binary-path:     monolympic
relocations:
  - { offsetInCU: 0x14EB2, offset: 0x14EB2, size: 0x8, addend: 0x0, symName: __ZNSt3__110make_tupleB7v160006IJRbRNS_12basic_stringIcNS_11char_traitsIcEENS_9allocatorIcEEEEEEENS_5tupleIJDpNS_18__unwrap_ref_decayIT_E4typeEEEEDpOSB_, symObjAddr: 0xAB0, symBinAddr: 0x100004070, symSize: 0x40 }
  - { offsetInCU: 0x14EFF, offset: 0x14EFF, size: 0x8, addend: 0x0, symName: __ZNSt3__118__debug_db_erase_cB7v160006INS_12basic_stringIjNS_11char_traitsIjEENS_9allocatorIjEEEEEEvPT_, symObjAddr: 0x2150, symBinAddr: 0x100005710, symSize: 0x10 }
  - { offsetInCU: 0x14F30, offset: 0x14F30, size: 0x8, addend: 0x0, symName: __ZNSt3__119__libcpp_deallocateB7v160006EPvmm, symObjAddr: 0x22B0, symBinAddr: 0x100005870, symSize: 0x60 }
  - { offsetInCU: 0x14F95, offset: 0x14F95, size: 0x8, addend: 0x0, symName: __ZNSt3__124__is_overaligned_for_newB7v160006Em, symObjAddr: 0x2310, symBinAddr: 0x1000058D0, symSize: 0x20 }
  - { offsetInCU: 0x14FC3, offset: 0x14FC3, size: 0x8, addend: 0x0, symName: __ZNSt3__127__do_deallocate_handle_sizeB7v160006IJSt11align_val_tEEEvPvmDpT_, symObjAddr: 0x2330, symBinAddr: 0x1000058F0, symSize: 0x30 }
  - { offsetInCU: 0x15016, offset: 0x15016, size: 0x8, addend: 0x0, symName: __ZNSt3__127__do_deallocate_handle_sizeB7v160006IJEEEvPvmDpT_, symObjAddr: 0x2360, symBinAddr: 0x100005920, symSize: 0x20 }
  - { offsetInCU: 0x15054, offset: 0x15054, size: 0x8, addend: 0x0, symName: __ZNSt3__124__libcpp_operator_deleteB7v160006IJPvSt11align_val_tEEEvDpT_, symObjAddr: 0x2380, symBinAddr: 0x100005940, symSize: 0x30 }
  - { offsetInCU: 0x1509D, offset: 0x1509D, size: 0x8, addend: 0x0, symName: __ZNSt3__124__libcpp_operator_deleteB7v160006IJPvEEEvDpT_, symObjAddr: 0x23B0, symBinAddr: 0x100005970, symSize: 0x20 }
  - { offsetInCU: 0x150D2, offset: 0x150D2, size: 0x8, addend: 0x0, symName: __ZNSt3__13minB7v160006IfEERKT_S3_S3_, symObjAddr: 0x25A0, symBinAddr: 0x100005B60, symSize: 0x30 }
  - { offsetInCU: 0x15115, offset: 0x15115, size: 0x8, addend: 0x0, symName: __ZNSt3__13maxB7v160006IfEERKT_S3_S3_, symObjAddr: 0x25D0, symBinAddr: 0x100005B90, symSize: 0x30 }
  - { offsetInCU: 0x15158, offset: 0x15158, size: 0x8, addend: 0x0, symName: __ZNSt3__13minB7v160006IfNS_6__lessIffEEEERKT_S5_S5_T0_, symObjAddr: 0x2600, symBinAddr: 0x100005BC0, symSize: 0x50 }
  - { offsetInCU: 0x151ED, offset: 0x151ED, size: 0x8, addend: 0x0, symName: __ZNSt3__13maxB7v160006IfNS_6__lessIffEEEERKT_S5_S5_T0_, symObjAddr: 0x2680, symBinAddr: 0x100005C40, symSize: 0x50 }
  - { offsetInCU: 0x1527B, offset: 0x1527B, size: 0x8, addend: 0x0, symName: __ZNSt3__118__debug_db_erase_cB7v160006INS_6vectorIN2sf6VertexENS_9allocatorIS3_EEEEEEvPT_, symObjAddr: 0x2B30, symBinAddr: 0x1000060F0, symSize: 0x10 }
  - { offsetInCU: 0x152AC, offset: 0x152AC, size: 0x8, addend: 0x0, symName: __ZNSt3__112__to_addressB7v160006IN2sf6VertexEEEPT_S4_, symObjAddr: 0x2C60, symBinAddr: 0x100006220, symSize: 0x10 }
  - { offsetInCU: 0x152E1, offset: 0x152E1, size: 0x8, addend: 0x0, symName: __ZNSt3__112__to_addressB7v160006IcEEPT_S2_, symObjAddr: 0x3280, symBinAddr: 0x100006840, symSize: 0x10 }
  - { offsetInCU: 0x15349, offset: 0x15349, size: 0x8, addend: 0x0, symName: __ZNSt3__119__debug_db_insert_cB7v160006INS_12basic_stringIcNS_11char_traitsIcEENS_9allocatorIcEEEEEEvPT_, symObjAddr: 0x3650, symBinAddr: 0x100006C10, symSize: 0x10 }
  - { offsetInCU: 0x1537A, offset: 0x1537A, size: 0x8, addend: 0x0, symName: __ZNSt3__118__constexpr_strlenB7v160006EPKc, symObjAddr: 0x36F0, symBinAddr: 0x100006CB0, symSize: 0x20 }
  - { offsetInCU: 0x19014, offset: 0x19014, size: 0x8, addend: 0x0, symName: __ZN9Affichage16setupIntroScreenERN2sf12RenderWindowE, symObjAddr: 0x0, symBinAddr: 0x1000035C0, symSize: 0x7A0 }
  - { offsetInCU: 0x190EF, offset: 0x190EF, size: 0x8, addend: 0x0, symName: __ZNSt3__112basic_stringIcNS_11char_traitsIcEENS_9allocatorIcEEEC1B7v160006IDnEEPKc, symObjAddr: 0x7A0, symBinAddr: 0x100003D60, symSize: 0x30 }
  - { offsetInCU: 0x1912D, offset: 0x1912D, size: 0x8, addend: 0x0, symName: __ZN2sf7Vector2IfEC1Eff, symObjAddr: 0x7D0, symBinAddr: 0x100003D90, symSize: 0x30 }
  - { offsetInCU: 0x19175, offset: 0x19175, size: 0x8, addend: 0x0, symName: __ZN2sf4RectIiEC1Ev, symObjAddr: 0x800, symBinAddr: 0x100003DC0, symSize: 0x20 }
  - { offsetInCU: 0x191A1, offset: 0x191A1, size: 0x8, addend: 0x0, symName: __ZN9Affichage14initializeTextERN2sf4TextERKNS0_4FontEiRKNS0_7Vector2IfEERKNS0_5ColorERKNSt3__112basic_stringIcNSD_11char_traitsIcEENSD_9allocatorIcEEEE, symObjAddr: 0x820, symBinAddr: 0x100003DE0, symSize: 0x100 }
  - { offsetInCU: 0x1921B, offset: 0x1921B, size: 0x8, addend: 0x0, symName: __ZN9Affichage17handleIntroEventsERN2sf12RenderWindowERbRKNS0_14RectangleShapeERNSt3__112basic_stringIcNS7_11char_traitsIcEENS7_9allocatorIcEEEE, symObjAddr: 0x920, symBinAddr: 0x100003EE0, symSize: 0xD0 }
  - { offsetInCU: 0x192A6, offset: 0x192A6, size: 0x8, addend: 0x0, symName: __ZN9Affichage17drawIntroElementsERN2sf12RenderWindowERKNS0_14RectangleShapeERKNS0_4TextES8_S5_, symObjAddr: 0x9F0, symBinAddr: 0x100003FB0, symSize: 0xC0 }
  - { offsetInCU: 0x19312, offset: 0x19312, size: 0x8, addend: 0x0, symName: __ZN2sf14RectangleShapeD1Ev, symObjAddr: 0xAF0, symBinAddr: 0x1000040B0, symSize: 0x20 }
  - { offsetInCU: 0x1933E, offset: 0x1933E, size: 0x8, addend: 0x0, symName: __ZN2sf4TextD1Ev, symObjAddr: 0xB10, symBinAddr: 0x1000040D0, symSize: 0x20 }
  - { offsetInCU: 0x1936A, offset: 0x1936A, size: 0x8, addend: 0x0, symName: __ZN9Affichage21createSelectionWindowERN2sf12RenderWindowERNSt3__112basic_stringIcNS3_11char_traitsIcEENS3_9allocatorIcEEEENS0_4FontEb, symObjAddr: 0xB30, symBinAddr: 0x1000040F0, symSize: 0x8F0 }
  - { offsetInCU: 0x19482, offset: 0x19482, size: 0x8, addend: 0x0, symName: __ZN9Affichage21handleSelectionEventsERN2sf12RenderWindowERbRNSt3__112basic_stringIcNS4_11char_traitsIcEENS4_9allocatorIcEEEERNS0_4TextERKNS0_14RectangleShapeE, symObjAddr: 0x1420, symBinAddr: 0x1000049E0, symSize: 0xC0 }
  - { offsetInCU: 0x194FE, offset: 0x194FE, size: 0x8, addend: 0x0, symName: __ZN9Affichage21drawSelectionElementsERN2sf12RenderWindowERKNS0_14RectangleShapeES5_S5_RKNS0_4TextES5_, symObjAddr: 0x14E0, symBinAddr: 0x100004AA0, symSize: 0xE0 }
  - { offsetInCU: 0x19578, offset: 0x19578, size: 0x8, addend: 0x0, symName: __ZNSt3__112basic_stringIcNS_11char_traitsIcEENS_9allocatorIcEEEaSB7v160006EOS5_, symObjAddr: 0x15C0, symBinAddr: 0x100004B80, symSize: 0x30 }
  - { offsetInCU: 0x195AD, offset: 0x195AD, size: 0x8, addend: 0x0, symName: __ZN9Affichage16selectPlayerPionERN2sf12RenderWindowE, symObjAddr: 0x15F0, symBinAddr: 0x100004BB0, symSize: 0x6D0 }
  - { offsetInCU: 0x19683, offset: 0x19683, size: 0x8, addend: 0x0, symName: __ZN9Affichage27initializeChooseImageSpriteERN2sf6SpriteERKNS0_12RenderWindowE, symObjAddr: 0x1CC0, symBinAddr: 0x100005280, symSize: 0xF0 }
  - { offsetInCU: 0x196E3, offset: 0x196E3, size: 0x8, addend: 0x0, symName: __ZN9Affichage25handlePionSelectionEventsERN2sf12RenderWindowERbRNSt3__112basic_stringIcNS4_11char_traitsIcEENS4_9allocatorIcEEEERKNS0_14RectangleShapeESE_, symObjAddr: 0x1DB0, symBinAddr: 0x100005370, symSize: 0x1E0 }
  - { offsetInCU: 0x19776, offset: 0x19776, size: 0x8, addend: 0x0, symName: __ZN9Affichage25drawPionSelectionElementsERN2sf12RenderWindowERKNS0_14RectangleShapeERKNS0_6SpriteES5_S5_, symObjAddr: 0x1F90, symBinAddr: 0x100005550, symSize: 0xC0 }
  - { offsetInCU: 0x197E2, offset: 0x197E2, size: 0x8, addend: 0x0, symName: __ZN2sf6SpriteD1Ev, symObjAddr: 0x2050, symBinAddr: 0x100005610, symSize: 0x20 }
  - { offsetInCU: 0x1980E, offset: 0x1980E, size: 0x8, addend: 0x0, symName: __ZN2sf6StringD1Ev, symObjAddr: 0x2070, symBinAddr: 0x100005630, symSize: 0x20 }
  - { offsetInCU: 0x1983A, offset: 0x1983A, size: 0x8, addend: 0x0, symName: __ZN2sf6StringD2Ev, symObjAddr: 0x2090, symBinAddr: 0x100005650, symSize: 0x20 }
  - { offsetInCU: 0x19866, offset: 0x19866, size: 0x8, addend: 0x0, symName: __ZNSt3__112basic_stringIjNS_11char_traitsIjEENS_9allocatorIjEEED1Ev, symObjAddr: 0x20B0, symBinAddr: 0x100005670, symSize: 0x20 }
  - { offsetInCU: 0x19892, offset: 0x19892, size: 0x8, addend: 0x0, symName: __ZNSt3__112basic_stringIjNS_11char_traitsIjEENS_9allocatorIjEEED2Ev, symObjAddr: 0x20D0, symBinAddr: 0x100005690, symSize: 0x80 }
  - { offsetInCU: 0x198BE, offset: 0x198BE, size: 0x8, addend: 0x0, symName: __ZNKSt3__112basic_stringIjNS_11char_traitsIjEENS_9allocatorIjEEE9__is_longB7v160006Ev, symObjAddr: 0x2170, symBinAddr: 0x100005730, symSize: 0x30 }
  - { offsetInCU: 0x198E4, offset: 0x198E4, size: 0x8, addend: 0x0, symName: __ZNSt3__116allocator_traitsINS_9allocatorIjEEE10deallocateB7v160006ERS2_Pjm, symObjAddr: 0x21A0, symBinAddr: 0x100005760, symSize: 0x30 }
  - { offsetInCU: 0x19926, offset: 0x19926, size: 0x8, addend: 0x0, symName: __ZNSt3__112basic_stringIjNS_11char_traitsIjEENS_9allocatorIjEEE7__allocB7v160006Ev, symObjAddr: 0x21D0, symBinAddr: 0x100005790, symSize: 0x20 }
  - { offsetInCU: 0x1994C, offset: 0x1994C, size: 0x8, addend: 0x0, symName: __ZNSt3__112basic_stringIjNS_11char_traitsIjEENS_9allocatorIjEEE18__get_long_pointerB7v160006Ev, symObjAddr: 0x21F0, symBinAddr: 0x1000057B0, symSize: 0x20 }
  - { offsetInCU: 0x19972, offset: 0x19972, size: 0x8, addend: 0x0, symName: __ZNKSt3__112basic_stringIjNS_11char_traitsIjEENS_9allocatorIjEEE14__get_long_capB7v160006Ev, symObjAddr: 0x2210, symBinAddr: 0x1000057D0, symSize: 0x30 }
  - { offsetInCU: 0x19998, offset: 0x19998, size: 0x8, addend: 0x0, symName: __ZNKSt3__117__compressed_pairINS_12basic_stringIjNS_11char_traitsIjEENS_9allocatorIjEEE5__repES5_E5firstB7v160006Ev, symObjAddr: 0x2240, symBinAddr: 0x100005800, symSize: 0x20 }
  - { offsetInCU: 0x199BE, offset: 0x199BE, size: 0x8, addend: 0x0, symName: __ZNKSt3__122__compressed_pair_elemINS_12basic_stringIjNS_11char_traitsIjEENS_9allocatorIjEEE5__repELi0ELb0EE5__getB7v160006Ev, symObjAddr: 0x2260, symBinAddr: 0x100005820, symSize: 0x10 }
  - { offsetInCU: 0x199E4, offset: 0x199E4, size: 0x8, addend: 0x0, symName: __ZNSt3__19allocatorIjE10deallocateB7v160006EPjm, symObjAddr: 0x2270, symBinAddr: 0x100005830, symSize: 0x40 }
  - { offsetInCU: 0x19A26, offset: 0x19A26, size: 0x8, addend: 0x0, symName: __ZNSt3__117__compressed_pairINS_12basic_stringIjNS_11char_traitsIjEENS_9allocatorIjEEE5__repES5_E6secondB7v160006Ev, symObjAddr: 0x23D0, symBinAddr: 0x100005990, symSize: 0x20 }
  - { offsetInCU: 0x19A4C, offset: 0x19A4C, size: 0x8, addend: 0x0, symName: __ZNSt3__122__compressed_pair_elemINS_9allocatorIjEELi1ELb1EE5__getB7v160006Ev, symObjAddr: 0x23F0, symBinAddr: 0x1000059B0, symSize: 0x10 }
  - { offsetInCU: 0x19A72, offset: 0x19A72, size: 0x8, addend: 0x0, symName: __ZNSt3__117__compressed_pairINS_12basic_stringIjNS_11char_traitsIjEENS_9allocatorIjEEE5__repES5_E5firstB7v160006Ev, symObjAddr: 0x2400, symBinAddr: 0x1000059C0, symSize: 0x20 }
  - { offsetInCU: 0x19A98, offset: 0x19A98, size: 0x8, addend: 0x0, symName: __ZNSt3__122__compressed_pair_elemINS_12basic_stringIjNS_11char_traitsIjEENS_9allocatorIjEEE5__repELi0ELb0EE5__getB7v160006Ev, symObjAddr: 0x2420, symBinAddr: 0x1000059E0, symSize: 0x10 }
  - { offsetInCU: 0x19ABE, offset: 0x19ABE, size: 0x8, addend: 0x0, symName: __ZNK2sf4RectIfE8containsERKNS_7Vector2IfEE, symObjAddr: 0x2430, symBinAddr: 0x1000059F0, symSize: 0x40 }
  - { offsetInCU: 0x19AF4, offset: 0x19AF4, size: 0x8, addend: 0x0, symName: __ZNK2sf4RectIfE8containsEff, symObjAddr: 0x2470, symBinAddr: 0x100005A30, symSize: 0x130 }
  - { offsetInCU: 0x19B83, offset: 0x19B83, size: 0x8, addend: 0x0, symName: __ZNKSt3__16__lessIffEclB7v160006ERKfS3_, symObjAddr: 0x2650, symBinAddr: 0x100005C10, symSize: 0x30 }
  - { offsetInCU: 0x19BC5, offset: 0x19BC5, size: 0x8, addend: 0x0, symName: __ZNSt3__15tupleIJbNS_12basic_stringIcNS_11char_traitsIcEENS_9allocatorIcEEEEEEC1B7v160006IJRbRS6_ELi0EEEDpOT_, symObjAddr: 0x26D0, symBinAddr: 0x100005C90, symSize: 0x30 }
  - { offsetInCU: 0x19C23, offset: 0x19C23, size: 0x8, addend: 0x0, symName: __ZNSt3__15tupleIJbNS_12basic_stringIcNS_11char_traitsIcEENS_9allocatorIcEEEEEEC2B7v160006IJRbRS6_ELi0EEEDpOT_, symObjAddr: 0x2700, symBinAddr: 0x100005CC0, symSize: 0x30 }
  - { offsetInCU: 0x19C81, offset: 0x19C81, size: 0x8, addend: 0x0, symName: __ZNSt3__112__tuple_implINS_15__tuple_indicesIJLm0ELm1EEEEJbNS_12basic_stringIcNS_11char_traitsIcEENS_9allocatorIcEEEEEEC1B7v160006IJLm0ELm1EEJbS8_EJEJEJRbRS8_EEENS1_IJXspT_EEEENS_13__tuple_typesIJDpT0_EEENS1_IJXspT1_EEEENSE_IJDpT2_EEEDpOT3_, symObjAddr: 0x2730, symBinAddr: 0x100005CF0, symSize: 0x30 }
  - { offsetInCU: 0x19D35, offset: 0x19D35, size: 0x8, addend: 0x0, symName: __ZNSt3__112__tuple_implINS_15__tuple_indicesIJLm0ELm1EEEEJbNS_12basic_stringIcNS_11char_traitsIcEENS_9allocatorIcEEEEEEC2B7v160006IJLm0ELm1EEJbS8_EJEJEJRbRS8_EEENS1_IJXspT_EEEENS_13__tuple_typesIJDpT0_EEENS1_IJXspT1_EEEENSE_IJDpT2_EEEDpOT3_, symObjAddr: 0x2760, symBinAddr: 0x100005D20, symSize: 0x40 }
  - { offsetInCU: 0x19DE9, offset: 0x19DE9, size: 0x8, addend: 0x0, symName: __ZNSt3__112__tuple_leafILm0EbLb0EEC2B7v160006IRbvEEOT_, symObjAddr: 0x27A0, symBinAddr: 0x100005D60, symSize: 0x20 }
  - { offsetInCU: 0x19E2C, offset: 0x19E2C, size: 0x8, addend: 0x0, symName: __ZNSt3__112__tuple_leafILm1ENS_12basic_stringIcNS_11char_traitsIcEENS_9allocatorIcEEEELb0EEC2B7v160006IRS6_vEEOT_, symObjAddr: 0x27C0, symBinAddr: 0x100005D80, symSize: 0x30 }
  - { offsetInCU: 0x19E6F, offset: 0x19E6F, size: 0x8, addend: 0x0, symName: __ZN2sf14RectangleShapeD2Ev, symObjAddr: 0x27F0, symBinAddr: 0x100005DB0, symSize: 0x20 }
  - { offsetInCU: 0x19E9B, offset: 0x19E9B, size: 0x8, addend: 0x0, symName: __ZThn8_N2sf14RectangleShapeD1Ev, symObjAddr: 0x2810, symBinAddr: 0x100005DD0, symSize: 0x20 }
  - { offsetInCU: 0x19EB1, offset: 0x19EB1, size: 0x8, addend: 0x0, symName: __ZN2sf4TextD2Ev, symObjAddr: 0x2830, symBinAddr: 0x100005DF0, symSize: 0x80 }
  - { offsetInCU: 0x19EDD, offset: 0x19EDD, size: 0x8, addend: 0x0, symName: __ZThn8_N2sf4TextD1Ev, symObjAddr: 0x28B0, symBinAddr: 0x100005E70, symSize: 0x20 }
  - { offsetInCU: 0x19EF3, offset: 0x19EF3, size: 0x8, addend: 0x0, symName: __ZN2sf11VertexArrayD1Ev, symObjAddr: 0x28D0, symBinAddr: 0x100005E90, symSize: 0x20 }
  - { offsetInCU: 0x19F1F, offset: 0x19F1F, size: 0x8, addend: 0x0, symName: __ZN2sf8DrawableD2Ev, symObjAddr: 0x28F0, symBinAddr: 0x100005EB0, symSize: 0x10 }
  - { offsetInCU: 0x19F49, offset: 0x19F49, size: 0x8, addend: 0x0, symName: __ZN2sf11VertexArrayD2Ev, symObjAddr: 0x2900, symBinAddr: 0x100005EC0, symSize: 0x40 }
  - { offsetInCU: 0x19F75, offset: 0x19F75, size: 0x8, addend: 0x0, symName: __ZNSt3__16vectorIN2sf6VertexENS_9allocatorIS2_EEED1B7v160006Ev, symObjAddr: 0x2940, symBinAddr: 0x100005F00, symSize: 0x20 }
  - { offsetInCU: 0x19F9F, offset: 0x19F9F, size: 0x8, addend: 0x0, symName: __ZNSt3__16vectorIN2sf6VertexENS_9allocatorIS2_EEED2B7v160006Ev, symObjAddr: 0x2960, symBinAddr: 0x100005F20, symSize: 0x40 }
  - { offsetInCU: 0x19FC9, offset: 0x19FC9, size: 0x8, addend: 0x0, symName: __ZNSt3__16vectorIN2sf6VertexENS_9allocatorIS2_EEE16__destroy_vectorC1ERS5_, symObjAddr: 0x29A0, symBinAddr: 0x100005F60, symSize: 0x30 }
  - { offsetInCU: 0x1A002, offset: 0x1A002, size: 0x8, addend: 0x0, symName: __ZNSt3__16vectorIN2sf6VertexENS_9allocatorIS2_EEE16__destroy_vectorclB7v160006Ev, symObjAddr: 0x29D0, symBinAddr: 0x100005F90, symSize: 0x90 }
  - { offsetInCU: 0x1A028, offset: 0x1A028, size: 0x8, addend: 0x0, symName: __ZNSt3__16vectorIN2sf6VertexENS_9allocatorIS2_EEE16__destroy_vectorC2ERS5_, symObjAddr: 0x2A60, symBinAddr: 0x100006020, symSize: 0x20 }
  - { offsetInCU: 0x1A061, offset: 0x1A061, size: 0x8, addend: 0x0, symName: __ZNKSt3__16vectorIN2sf6VertexENS_9allocatorIS2_EEE17__annotate_deleteB7v160006Ev, symObjAddr: 0x2A80, symBinAddr: 0x100006040, symSize: 0xB0 }
  - { offsetInCU: 0x1A087, offset: 0x1A087, size: 0x8, addend: 0x0, symName: __ZNSt3__16vectorIN2sf6VertexENS_9allocatorIS2_EEE7__clearB7v160006Ev, symObjAddr: 0x2B40, symBinAddr: 0x100006100, symSize: 0x20 }
  - { offsetInCU: 0x1A0AD, offset: 0x1A0AD, size: 0x8, addend: 0x0, symName: __ZNSt3__116allocator_traitsINS_9allocatorIN2sf6VertexEEEE10deallocateB7v160006ERS4_PS3_m, symObjAddr: 0x2B60, symBinAddr: 0x100006120, symSize: 0x30 }
  - { offsetInCU: 0x1A0EF, offset: 0x1A0EF, size: 0x8, addend: 0x0, symName: __ZNSt3__16vectorIN2sf6VertexENS_9allocatorIS2_EEE7__allocB7v160006Ev, symObjAddr: 0x2B90, symBinAddr: 0x100006150, symSize: 0x20 }
  - { offsetInCU: 0x1A115, offset: 0x1A115, size: 0x8, addend: 0x0, symName: __ZNKSt3__16vectorIN2sf6VertexENS_9allocatorIS2_EEE8capacityB7v160006Ev, symObjAddr: 0x2BB0, symBinAddr: 0x100006170, symSize: 0x40 }
  - { offsetInCU: 0x1A13B, offset: 0x1A13B, size: 0x8, addend: 0x0, symName: __ZNKSt3__16vectorIN2sf6VertexENS_9allocatorIS2_EEE31__annotate_contiguous_containerB7v160006EPKvS7_S7_S7_, symObjAddr: 0x2BF0, symBinAddr: 0x1000061B0, symSize: 0x20 }
  - { offsetInCU: 0x1A191, offset: 0x1A191, size: 0x8, addend: 0x0, symName: __ZNKSt3__16vectorIN2sf6VertexENS_9allocatorIS2_EEE4dataB7v160006Ev, symObjAddr: 0x2C10, symBinAddr: 0x1000061D0, symSize: 0x20 }
  - { offsetInCU: 0x1A1B7, offset: 0x1A1B7, size: 0x8, addend: 0x0, symName: __ZNKSt3__16vectorIN2sf6VertexENS_9allocatorIS2_EEE4sizeB7v160006Ev, symObjAddr: 0x2C30, symBinAddr: 0x1000061F0, symSize: 0x30 }
  - { offsetInCU: 0x1A1DD, offset: 0x1A1DD, size: 0x8, addend: 0x0, symName: __ZNSt3__16vectorIN2sf6VertexENS_9allocatorIS2_EEE22__base_destruct_at_endB7v160006EPS2_, symObjAddr: 0x2C70, symBinAddr: 0x100006230, symSize: 0x80 }
  - { offsetInCU: 0x1A221, offset: 0x1A221, size: 0x8, addend: 0x0, symName: __ZNSt3__116allocator_traitsINS_9allocatorIN2sf6VertexEEEE7destroyB7v160006IS3_vEEvRS4_PT_, symObjAddr: 0x2CF0, symBinAddr: 0x1000062B0, symSize: 0x30 }
  - { offsetInCU: 0x1A25E, offset: 0x1A25E, size: 0x8, addend: 0x0, symName: __ZNSt3__19allocatorIN2sf6VertexEE7destroyB7v160006EPS2_, symObjAddr: 0x2D20, symBinAddr: 0x1000062E0, symSize: 0x10 }
  - { offsetInCU: 0x1A292, offset: 0x1A292, size: 0x8, addend: 0x0, symName: __ZNSt3__19allocatorIN2sf6VertexEE10deallocateB7v160006EPS2_m, symObjAddr: 0x2D30, symBinAddr: 0x1000062F0, symSize: 0x50 }
  - { offsetInCU: 0x1A2D4, offset: 0x1A2D4, size: 0x8, addend: 0x0, symName: __ZNSt3__117__compressed_pairIPN2sf6VertexENS_9allocatorIS2_EEE6secondB7v160006Ev, symObjAddr: 0x2D80, symBinAddr: 0x100006340, symSize: 0x20 }
  - { offsetInCU: 0x1A2FA, offset: 0x1A2FA, size: 0x8, addend: 0x0, symName: __ZNSt3__122__compressed_pair_elemINS_9allocatorIN2sf6VertexEEELi1ELb1EE5__getB7v160006Ev, symObjAddr: 0x2DA0, symBinAddr: 0x100006360, symSize: 0x10 }
  - { offsetInCU: 0x1A320, offset: 0x1A320, size: 0x8, addend: 0x0, symName: __ZNKSt3__16vectorIN2sf6VertexENS_9allocatorIS2_EEE9__end_capB7v160006Ev, symObjAddr: 0x2DB0, symBinAddr: 0x100006370, symSize: 0x20 }
  - { offsetInCU: 0x1A346, offset: 0x1A346, size: 0x8, addend: 0x0, symName: __ZNKSt3__117__compressed_pairIPN2sf6VertexENS_9allocatorIS2_EEE5firstB7v160006Ev, symObjAddr: 0x2DD0, symBinAddr: 0x100006390, symSize: 0x20 }
  - { offsetInCU: 0x1A36C, offset: 0x1A36C, size: 0x8, addend: 0x0, symName: __ZNKSt3__122__compressed_pair_elemIPN2sf6VertexELi0ELb0EE5__getB7v160006Ev, symObjAddr: 0x2DF0, symBinAddr: 0x1000063B0, symSize: 0x10 }
  - { offsetInCU: 0x1A392, offset: 0x1A392, size: 0x8, addend: 0x0, symName: __ZN9Affichage22handleTextEnteredEventERKN2sf5EventERNSt3__112basic_stringIcNS4_11char_traitsIcEENS4_9allocatorIcEEEERNS0_4TextE, symObjAddr: 0x2E00, symBinAddr: 0x1000063C0, symSize: 0x1D0 }
  - { offsetInCU: 0x1A3E2, offset: 0x1A3E2, size: 0x8, addend: 0x0, symName: __ZN9Affichage29handleMouseButtonPressedEventERKN2sf5EventERNS0_12RenderWindowERbRNSt3__112basic_stringIcNS7_11char_traitsIcEENS7_9allocatorIcEEEERNS0_4TextERKNS0_14RectangleShapeE, symObjAddr: 0x2FD0, symBinAddr: 0x100006590, symSize: 0x90 }
  - { offsetInCU: 0x1A46B, offset: 0x1A46B, size: 0x8, addend: 0x0, symName: __ZNSt3__112basic_stringIcNS_11char_traitsIcEENS_9allocatorIcEEEpLB7v160006Ec, symObjAddr: 0x3060, symBinAddr: 0x100006620, symSize: 0x30 }
  - { offsetInCU: 0x1A4A0, offset: 0x1A4A0, size: 0x8, addend: 0x0, symName: __ZNKSt3__112basic_stringIcNS_11char_traitsIcEENS_9allocatorIcEEE6lengthB7v160006Ev, symObjAddr: 0x3090, symBinAddr: 0x100006650, symSize: 0x20 }
  - { offsetInCU: 0x1A4C6, offset: 0x1A4C6, size: 0x8, addend: 0x0, symName: __ZNSt3__112basic_stringIcNS_11char_traitsIcEENS_9allocatorIcEEE8pop_backB7v160006Ev, symObjAddr: 0x30B0, symBinAddr: 0x100006670, symSize: 0x30 }
  - { offsetInCU: 0x1A4EE, offset: 0x1A4EE, size: 0x8, addend: 0x0, symName: __ZNKSt3__112basic_stringIcNS_11char_traitsIcEENS_9allocatorIcEEE4sizeB7v160006Ev, symObjAddr: 0x30E0, symBinAddr: 0x1000066A0, symSize: 0x50 }
  - { offsetInCU: 0x1A514, offset: 0x1A514, size: 0x8, addend: 0x0, symName: __ZNKSt3__112basic_stringIcNS_11char_traitsIcEENS_9allocatorIcEEE9__is_longB7v160006Ev, symObjAddr: 0x3130, symBinAddr: 0x1000066F0, symSize: 0x30 }
  - { offsetInCU: 0x1A53A, offset: 0x1A53A, size: 0x8, addend: 0x0, symName: __ZNKSt3__112basic_stringIcNS_11char_traitsIcEENS_9allocatorIcEEE15__get_long_sizeB7v160006Ev, symObjAddr: 0x3160, symBinAddr: 0x100006720, symSize: 0x20 }
  - { offsetInCU: 0x1A560, offset: 0x1A560, size: 0x8, addend: 0x0, symName: __ZNKSt3__112basic_stringIcNS_11char_traitsIcEENS_9allocatorIcEEE16__get_short_sizeB7v160006Ev, symObjAddr: 0x3180, symBinAddr: 0x100006740, symSize: 0x30 }
  - { offsetInCU: 0x1A586, offset: 0x1A586, size: 0x8, addend: 0x0, symName: __ZNKSt3__117__compressed_pairINS_12basic_stringIcNS_11char_traitsIcEENS_9allocatorIcEEE5__repES5_E5firstB7v160006Ev, symObjAddr: 0x31B0, symBinAddr: 0x100006770, symSize: 0x20 }
  - { offsetInCU: 0x1A5AC, offset: 0x1A5AC, size: 0x8, addend: 0x0, symName: __ZNKSt3__122__compressed_pair_elemINS_12basic_stringIcNS_11char_traitsIcEENS_9allocatorIcEEE5__repELi0ELb0EE5__getB7v160006Ev, symObjAddr: 0x31D0, symBinAddr: 0x100006790, symSize: 0x10 }
  - { offsetInCU: 0x1A5D2, offset: 0x1A5D2, size: 0x8, addend: 0x0, symName: __ZNSt3__112basic_stringIcNS_11char_traitsIcEENS_9allocatorIcEEE14__erase_to_endB7v160006Em, symObjAddr: 0x31E0, symBinAddr: 0x1000067A0, symSize: 0x40 }
  - { offsetInCU: 0x1A607, offset: 0x1A607, size: 0x8, addend: 0x0, symName: __ZNSt3__112basic_stringIcNS_11char_traitsIcEENS_9allocatorIcEEE19__null_terminate_atB7v160006EPcm, symObjAddr: 0x3220, symBinAddr: 0x1000067E0, symSize: 0x60 }
  - { offsetInCU: 0x1A64B, offset: 0x1A64B, size: 0x8, addend: 0x0, symName: __ZNSt3__112basic_stringIcNS_11char_traitsIcEENS_9allocatorIcEEE13__get_pointerB7v160006Ev, symObjAddr: 0x3290, symBinAddr: 0x100006850, symSize: 0x50 }
  - { offsetInCU: 0x1A671, offset: 0x1A671, size: 0x8, addend: 0x0, symName: __ZNSt3__112basic_stringIcNS_11char_traitsIcEENS_9allocatorIcEEE10__set_sizeB7v160006Em, symObjAddr: 0x32E0, symBinAddr: 0x1000068A0, symSize: 0x50 }
  - { offsetInCU: 0x1A6A6, offset: 0x1A6A6, size: 0x8, addend: 0x0, symName: __ZNSt3__112basic_stringIcNS_11char_traitsIcEENS_9allocatorIcEEE27__invalidate_iterators_pastB7v160006Em, symObjAddr: 0x3330, symBinAddr: 0x1000068F0, symSize: 0x10 }
  - { offsetInCU: 0x1A6DD, offset: 0x1A6DD, size: 0x8, addend: 0x0, symName: __ZNSt3__111char_traitsIcE6assignERcRKc, symObjAddr: 0x3340, symBinAddr: 0x100006900, symSize: 0x20 }
  - { offsetInCU: 0x1A70E, offset: 0x1A70E, size: 0x8, addend: 0x0, symName: __ZNSt3__112basic_stringIcNS_11char_traitsIcEENS_9allocatorIcEEE15__set_long_sizeB7v160006Em, symObjAddr: 0x3360, symBinAddr: 0x100006920, symSize: 0x30 }
  - { offsetInCU: 0x1A743, offset: 0x1A743, size: 0x8, addend: 0x0, symName: __ZNSt3__112basic_stringIcNS_11char_traitsIcEENS_9allocatorIcEEE16__set_short_sizeB7v160006Em, symObjAddr: 0x3390, symBinAddr: 0x100006950, symSize: 0x50 }
  - { offsetInCU: 0x1A778, offset: 0x1A778, size: 0x8, addend: 0x0, symName: __ZNSt3__117__compressed_pairINS_12basic_stringIcNS_11char_traitsIcEENS_9allocatorIcEEE5__repES5_E5firstB7v160006Ev, symObjAddr: 0x33E0, symBinAddr: 0x1000069A0, symSize: 0x20 }
  - { offsetInCU: 0x1A79E, offset: 0x1A79E, size: 0x8, addend: 0x0, symName: __ZNSt3__122__compressed_pair_elemINS_12basic_stringIcNS_11char_traitsIcEENS_9allocatorIcEEE5__repELi0ELb0EE5__getB7v160006Ev, symObjAddr: 0x3400, symBinAddr: 0x1000069C0, symSize: 0x10 }
  - { offsetInCU: 0x1A7C4, offset: 0x1A7C4, size: 0x8, addend: 0x0, symName: __ZNSt3__112basic_stringIcNS_11char_traitsIcEENS_9allocatorIcEEE18__get_long_pointerB7v160006Ev, symObjAddr: 0x3410, symBinAddr: 0x1000069D0, symSize: 0x20 }
  - { offsetInCU: 0x1A7EA, offset: 0x1A7EA, size: 0x8, addend: 0x0, symName: __ZNSt3__112basic_stringIcNS_11char_traitsIcEENS_9allocatorIcEEE19__get_short_pointerB7v160006Ev, symObjAddr: 0x3430, symBinAddr: 0x1000069F0, symSize: 0x30 }
  - { offsetInCU: 0x1A810, offset: 0x1A810, size: 0x8, addend: 0x0, symName: __ZNSt3__114pointer_traitsIPcE10pointer_toB7v160006ERc, symObjAddr: 0x3460, symBinAddr: 0x100006A20, symSize: 0x10 }
  - { offsetInCU: 0x1A833, offset: 0x1A833, size: 0x8, addend: 0x0, symName: __ZN9Affichage20handlePionClickEventERKN2sf7Vector2IfEERKNS0_14RectangleShapeERbRNSt3__112basic_stringIcNS9_11char_traitsIcEENS9_9allocatorIcEEEERKSF_, symObjAddr: 0x3470, symBinAddr: 0x100006A30, symSize: 0x70 }
  - { offsetInCU: 0x1A89F, offset: 0x1A89F, size: 0x8, addend: 0x0, symName: __ZN2sf6SpriteD2Ev, symObjAddr: 0x34E0, symBinAddr: 0x100006AA0, symSize: 0x30 }
  - { offsetInCU: 0x1A8CB, offset: 0x1A8CB, size: 0x8, addend: 0x0, symName: __ZThn8_N2sf6SpriteD1Ev, symObjAddr: 0x3510, symBinAddr: 0x100006AD0, symSize: 0x20 }
  - { offsetInCU: 0x1A8E1, offset: 0x1A8E1, size: 0x8, addend: 0x0, symName: __ZN2sf4RectIiEC2Ev, symObjAddr: 0x3530, symBinAddr: 0x100006AF0, symSize: 0x30 }
  - { offsetInCU: 0x1A90D, offset: 0x1A90D, size: 0x8, addend: 0x0, symName: __ZN2sf7Vector2IfEC2Eff, symObjAddr: 0x3560, symBinAddr: 0x100006B20, symSize: 0x30 }
  - { offsetInCU: 0x1A955, offset: 0x1A955, size: 0x8, addend: 0x0, symName: __ZNSt3__112basic_stringIcNS_11char_traitsIcEENS_9allocatorIcEEEC2B7v160006IDnEEPKc, symObjAddr: 0x3590, symBinAddr: 0x100006B50, symSize: 0x60 }
  - { offsetInCU: 0x1A998, offset: 0x1A998, size: 0x8, addend: 0x0, symName: __ZNSt3__117__compressed_pairINS_12basic_stringIcNS_11char_traitsIcEENS_9allocatorIcEEE5__repES5_EC1B7v160006INS_18__default_init_tagESA_EEOT_OT0_, symObjAddr: 0x35F0, symBinAddr: 0x100006BB0, symSize: 0x30 }
  - { offsetInCU: 0x1A9F0, offset: 0x1A9F0, size: 0x8, addend: 0x0, symName: __ZNSt3__111char_traitsIcE6lengthEPKc, symObjAddr: 0x3620, symBinAddr: 0x100006BE0, symSize: 0x30 }
  - { offsetInCU: 0x1AA13, offset: 0x1AA13, size: 0x8, addend: 0x0, symName: __ZNSt3__117__compressed_pairINS_12basic_stringIcNS_11char_traitsIcEENS_9allocatorIcEEE5__repES5_EC2B7v160006INS_18__default_init_tagESA_EEOT_OT0_, symObjAddr: 0x3660, symBinAddr: 0x100006C20, symSize: 0x30 }
  - { offsetInCU: 0x1AA6B, offset: 0x1AA6B, size: 0x8, addend: 0x0, symName: __ZNSt3__122__compressed_pair_elemINS_12basic_stringIcNS_11char_traitsIcEENS_9allocatorIcEEE5__repELi0ELb0EEC2B7v160006ENS_18__default_init_tagE, symObjAddr: 0x3690, symBinAddr: 0x100006C50, symSize: 0x10 }
  - { offsetInCU: 0x1AAA0, offset: 0x1AAA0, size: 0x8, addend: 0x0, symName: __ZNSt3__122__compressed_pair_elemINS_9allocatorIcEELi1ELb1EEC2B7v160006ENS_18__default_init_tagE, symObjAddr: 0x36A0, symBinAddr: 0x100006C60, symSize: 0x20 }
  - { offsetInCU: 0x1AAD5, offset: 0x1AAD5, size: 0x8, addend: 0x0, symName: __ZNSt3__19allocatorIcEC2B7v160006Ev, symObjAddr: 0x36C0, symBinAddr: 0x100006C80, symSize: 0x20 }
  - { offsetInCU: 0x1AAFF, offset: 0x1AAFF, size: 0x8, addend: 0x0, symName: __ZNSt3__116__non_trivial_ifILb1ENS_9allocatorIcEEEC2B7v160006Ev, symObjAddr: 0x36E0, symBinAddr: 0x100006CA0, symSize: 0x10 }
  - { offsetInCU: 0x1AB29, offset: 0x1AB29, size: 0x8, addend: 0x0, symName: __ZNSt3__112basic_stringIcNS_11char_traitsIcEENS_9allocatorIcEEE13__move_assignB7v160006ERS5_NS_17integral_constantIbLb1EEE, symObjAddr: 0x3710, symBinAddr: 0x100006CD0, symSize: 0xD0 }
  - { offsetInCU: 0x1AB6C, offset: 0x1AB6C, size: 0x8, addend: 0x0, symName: __ZNSt3__116allocator_traitsINS_9allocatorIcEEE10deallocateB7v160006ERS2_Pcm, symObjAddr: 0x37E0, symBinAddr: 0x100006DA0, symSize: 0x30 }
  - { offsetInCU: 0x1ABAE, offset: 0x1ABAE, size: 0x8, addend: 0x0, symName: __ZNSt3__112basic_stringIcNS_11char_traitsIcEENS_9allocatorIcEEE7__allocB7v160006Ev, symObjAddr: 0x3810, symBinAddr: 0x100006DD0, symSize: 0x20 }
  - { offsetInCU: 0x1ABD4, offset: 0x1ABD4, size: 0x8, addend: 0x0, symName: __ZNKSt3__112basic_stringIcNS_11char_traitsIcEENS_9allocatorIcEEE14__get_long_capB7v160006Ev, symObjAddr: 0x3830, symBinAddr: 0x100006DF0, symSize: 0x30 }
  - { offsetInCU: 0x1ABFA, offset: 0x1ABFA, size: 0x8, addend: 0x0, symName: __ZNSt3__112basic_stringIcNS_11char_traitsIcEENS_9allocatorIcEEE19__move_assign_allocB7v160006ERS5_, symObjAddr: 0x3860, symBinAddr: 0x100006E20, symSize: 0x30 }
  - { offsetInCU: 0x1AC2F, offset: 0x1AC2F, size: 0x8, addend: 0x0, symName: __ZNSt3__19allocatorIcE10deallocateB7v160006EPcm, symObjAddr: 0x3890, symBinAddr: 0x100006E50, symSize: 0x40 }
  - { offsetInCU: 0x1AC71, offset: 0x1AC71, size: 0x8, addend: 0x0, symName: __ZNSt3__117__compressed_pairINS_12basic_stringIcNS_11char_traitsIcEENS_9allocatorIcEEE5__repES5_E6secondB7v160006Ev, symObjAddr: 0x38D0, symBinAddr: 0x100006E90, symSize: 0x20 }
  - { offsetInCU: 0x1AC97, offset: 0x1AC97, size: 0x8, addend: 0x0, symName: __ZNSt3__122__compressed_pair_elemINS_9allocatorIcEELi1ELb1EE5__getB7v160006Ev, symObjAddr: 0x38F0, symBinAddr: 0x100006EB0, symSize: 0x10 }
  - { offsetInCU: 0x1ACBD, offset: 0x1ACBD, size: 0x8, addend: 0x0, symName: __ZNSt3__112basic_stringIcNS_11char_traitsIcEENS_9allocatorIcEEE19__move_assign_allocB7v160006ERS5_NS_17integral_constantIbLb1EEE, symObjAddr: 0x3900, symBinAddr: 0x100006EC0, symSize: 0x30 }
  - { offsetInCU: 0x297A, offset: 0x1D71C, size: 0x8, addend: 0x0, symName: __ZNSt3__124__put_character_sequenceB7v160006IcNS_11char_traitsIcEEEERNS_13basic_ostreamIT_T0_EES7_PKS4_m, symObjAddr: 0x680, symBinAddr: 0x100007340, symSize: 0x1F0 }
  - { offsetInCU: 0x43AC, offset: 0x1F14E, size: 0x8, addend: 0x0, symName: __ZNSt3__1lsB7v160006INS_11char_traitsIcEEEERNS_13basic_ostreamIcT_EES6_PKc, symObjAddr: 0x140, symBinAddr: 0x100007010, symSize: 0x40 }
  - { offsetInCU: 0x43F2, offset: 0x1F194, size: 0x8, addend: 0x0, symName: __ZNSt3__14endlB7v160006IcNS_11char_traitsIcEEEERNS_13basic_ostreamIT_T0_EES7_, symObjAddr: 0x1A0, symBinAddr: 0x100007070, symSize: 0x50 }
  - { offsetInCU: 0x4432, offset: 0x1F1D4, size: 0x8, addend: 0x0, symName: __ZNSt3__116__pad_and_outputB7v160006IcNS_11char_traitsIcEEEENS_19ostreambuf_iteratorIT_T0_EES6_PKS4_S8_S8_RNS_8ios_baseES4_, symObjAddr: 0x8C0, symBinAddr: 0x100007550, symSize: 0x220 }
  - { offsetInCU: 0x4503, offset: 0x1F2A5, size: 0x8, addend: 0x0, symName: __ZNSt3__19use_facetB7v160006INS_5ctypeIcEEEERKT_RKNS_6localeE, symObjAddr: 0x1090, symBinAddr: 0x100007AF0, symSize: 0x30 }
  - { offsetInCU: 0x6BC6, offset: 0x21968, size: 0x8, addend: 0x0, symName: __ZN6ButtonC2ERKNSt3__112basic_stringIcNS0_11char_traitsIcEENS0_9allocatorIcEEEE, symObjAddr: 0x0, symBinAddr: 0x100006EF0, symSize: 0x120 }
  - { offsetInCU: 0x6C00, offset: 0x219A2, size: 0x8, addend: 0x0, symName: __ZNSt3__113basic_ostreamIcNS_11char_traitsIcEEElsB7v160006EPFRS3_S4_E, symObjAddr: 0x180, symBinAddr: 0x100007050, symSize: 0x20 }
  - { offsetInCU: 0x6C34, offset: 0x219D6, size: 0x8, addend: 0x0, symName: __ZN6ButtonC1ERKNSt3__112basic_stringIcNS0_11char_traitsIcEENS0_9allocatorIcEEEE, symObjAddr: 0x210, symBinAddr: 0x1000070C0, symSize: 0x30 }
  - { offsetInCU: 0x6C6E, offset: 0x21A10, size: 0x8, addend: 0x0, symName: __ZN6Button11setPositionERKN2sf7Vector2IfEE, symObjAddr: 0x240, symBinAddr: 0x1000070F0, symSize: 0x30 }
  - { offsetInCU: 0x6CA4, offset: 0x21A46, size: 0x8, addend: 0x0, symName: __ZN6Button8setScaleERKN2sf7Vector2IfEE, symObjAddr: 0x270, symBinAddr: 0x100007120, symSize: 0x30 }
  - { offsetInCU: 0x6CDA, offset: 0x21A7C, size: 0x8, addend: 0x0, symName: __ZNK6Button11getPositionEv, symObjAddr: 0x2A0, symBinAddr: 0x100007150, symSize: 0x30 }
  - { offsetInCU: 0x6D02, offset: 0x21AA4, size: 0x8, addend: 0x0, symName: __ZNK6Button7getSizeEv, symObjAddr: 0x2D0, symBinAddr: 0x100007180, symSize: 0xB0 }
  - { offsetInCU: 0x6D2A, offset: 0x21ACC, size: 0x8, addend: 0x0, symName: __ZN6Button4drawERN2sf12RenderWindowE, symObjAddr: 0x3B0, symBinAddr: 0x100007230, symSize: 0x40 }
  - { offsetInCU: 0x6D60, offset: 0x21B02, size: 0x8, addend: 0x0, symName: __ZN6Button11handleEventERKN2sf5EventERNS0_12RenderWindowE, symObjAddr: 0x3F0, symBinAddr: 0x100007270, symSize: 0x90 }
  - { offsetInCU: 0x6DD0, offset: 0x21B72, size: 0x8, addend: 0x0, symName: __ZNK6Button9isClickedEv, symObjAddr: 0x5B0, symBinAddr: 0x100007300, symSize: 0x20 }
  - { offsetInCU: 0x6DF8, offset: 0x21B9A, size: 0x8, addend: 0x0, symName: __ZN6Button12resetClickedEv, symObjAddr: 0x5D0, symBinAddr: 0x100007320, symSize: 0x20 }
  - { offsetInCU: 0x6E3E, offset: 0x21BE0, size: 0x8, addend: 0x0, symName: __ZNKSt3__113basic_ostreamIcNS_11char_traitsIcEEE6sentrycvbB7v160006Ev, symObjAddr: 0x8A0, symBinAddr: 0x100007530, symSize: 0x20 }
  - { offsetInCU: 0x6E64, offset: 0x21C06, size: 0x8, addend: 0x0, symName: __ZNSt3__119ostreambuf_iteratorIcNS_11char_traitsIcEEEC1B7v160006ERNS_13basic_ostreamIcS2_EE, symObjAddr: 0xAE0, symBinAddr: 0x100007770, symSize: 0x30 }
  - { offsetInCU: 0x6E9C, offset: 0x21C3E, size: 0x8, addend: 0x0, symName: __ZNKSt3__18ios_base5flagsB7v160006Ev, symObjAddr: 0xB10, symBinAddr: 0x1000077A0, symSize: 0x20 }
  - { offsetInCU: 0x6EC4, offset: 0x21C66, size: 0x8, addend: 0x0, symName: __ZNKSt3__19basic_iosIcNS_11char_traitsIcEEE4fillB7v160006Ev, symObjAddr: 0xB30, symBinAddr: 0x1000077C0, symSize: 0x70 }
  - { offsetInCU: 0x6EEC, offset: 0x21C8E, size: 0x8, addend: 0x0, symName: __ZNKSt3__119ostreambuf_iteratorIcNS_11char_traitsIcEEE6failedB7v160006Ev, symObjAddr: 0xBA0, symBinAddr: 0x100007830, symSize: 0x20 }
  - { offsetInCU: 0x6F12, offset: 0x21CB4, size: 0x8, addend: 0x0, symName: __ZNSt3__19basic_iosIcNS_11char_traitsIcEEE8setstateB7v160006Ej, symObjAddr: 0xBC0, symBinAddr: 0x100007850, symSize: 0x30 }
  - { offsetInCU: 0x6F47, offset: 0x21CE9, size: 0x8, addend: 0x0, symName: __ZNKSt3__18ios_base5widthB7v160006Ev, symObjAddr: 0xC00, symBinAddr: 0x100007880, symSize: 0x20 }
  - { offsetInCU: 0x6F6F, offset: 0x21D11, size: 0x8, addend: 0x0, symName: __ZNSt3__115basic_streambufIcNS_11char_traitsIcEEE5sputnB7v160006EPKcl, symObjAddr: 0xC20, symBinAddr: 0x1000078A0, symSize: 0x30 }
  - { offsetInCU: 0x6FB1, offset: 0x21D53, size: 0x8, addend: 0x0, symName: __ZNSt3__112basic_stringIcNS_11char_traitsIcEENS_9allocatorIcEEEC1B7v160006Emc, symObjAddr: 0xC50, symBinAddr: 0x1000078D0, symSize: 0x30 }
  - { offsetInCU: 0x6FF9, offset: 0x21D9B, size: 0x8, addend: 0x0, symName: __ZNSt3__112basic_stringIcNS_11char_traitsIcEENS_9allocatorIcEEE4dataB7v160006Ev, symObjAddr: 0xC80, symBinAddr: 0x100007900, symSize: 0x30 }
  - { offsetInCU: 0x701F, offset: 0x21DC1, size: 0x8, addend: 0x0, symName: __ZNSt3__18ios_base5widthB7v160006El, symObjAddr: 0xCB0, symBinAddr: 0x100007930, symSize: 0x30 }
  - { offsetInCU: 0x7065, offset: 0x21E07, size: 0x8, addend: 0x0, symName: __ZNSt3__112basic_stringIcNS_11char_traitsIcEENS_9allocatorIcEEEC2B7v160006Emc, symObjAddr: 0xCE0, symBinAddr: 0x100007960, symSize: 0x50 }
  - { offsetInCU: 0x70AD, offset: 0x21E4F, size: 0x8, addend: 0x0, symName: __ZNSt3__119ostreambuf_iteratorIcNS_11char_traitsIcEEEC2B7v160006ERNS_13basic_ostreamIcS2_EE, symObjAddr: 0xF50, symBinAddr: 0x1000079B0, symSize: 0x50 }
  - { offsetInCU: 0x70E5, offset: 0x21E87, size: 0x8, addend: 0x0, symName: __ZNKSt3__19basic_iosIcNS_11char_traitsIcEEE5rdbufB7v160006Ev, symObjAddr: 0xFA0, symBinAddr: 0x100007A00, symSize: 0x20 }
  - { offsetInCU: 0x710D, offset: 0x21EAF, size: 0x8, addend: 0x0, symName: __ZNKSt3__18ios_base5rdbufB7v160006Ev, symObjAddr: 0xFC0, symBinAddr: 0x100007A20, symSize: 0x20 }
  - { offsetInCU: 0x7133, offset: 0x21ED5, size: 0x8, addend: 0x0, symName: __ZNSt3__111char_traitsIcE11eq_int_typeEii, symObjAddr: 0xFE0, symBinAddr: 0x100007A40, symSize: 0x20 }
  - { offsetInCU: 0x7164, offset: 0x21F06, size: 0x8, addend: 0x0, symName: __ZNSt3__111char_traitsIcE3eofEv, symObjAddr: 0x1000, symBinAddr: 0x100007A60, symSize: 0x10 }
  - { offsetInCU: 0x7178, offset: 0x21F1A, size: 0x8, addend: 0x0, symName: __ZNKSt3__19basic_iosIcNS_11char_traitsIcEEE5widenB7v160006Ec, symObjAddr: 0x1010, symBinAddr: 0x100007A70, symSize: 0x80 }
  - { offsetInCU: 0x71E1, offset: 0x21F83, size: 0x8, addend: 0x0, symName: __ZNKSt3__15ctypeIcE5widenB7v160006Ec, symObjAddr: 0x10C0, symBinAddr: 0x100007B20, symSize: 0x30 }
  - { offsetInCU: 0x7216, offset: 0x21FB8, size: 0x8, addend: 0x0, symName: __ZNSt3__18ios_base8setstateB7v160006Ej, symObjAddr: 0x10F0, symBinAddr: 0x100007B50, symSize: 0x30 }
  - { offsetInCU: 0x4717, offset: 0x26746, size: 0x8, addend: 0x0, symName: __ZNSt3__1plB7v160006IcNS_11char_traitsIcEENS_9allocatorIcEEEENS_12basic_stringIT_T0_T1_EEOS9_PKS6_, symObjAddr: 0x370, symBinAddr: 0x100007EF0, symSize: 0x50 }
  - { offsetInCU: 0x476F, offset: 0x2679E, size: 0x8, addend: 0x0, symName: __ZNSt3__1plB7v160006IcNS_11char_traitsIcEENS_9allocatorIcEEEENS_12basic_stringIT_T0_T1_EEPKS6_OS9_, symObjAddr: 0x3C0, symBinAddr: 0x100007F40, symSize: 0x50 }
  - { offsetInCU: 0x47C7, offset: 0x267F6, size: 0x8, addend: 0x0, symName: __ZNSt3__119__debug_db_insert_cB7v160006INS_6vectorINS_12basic_stringIcNS_11char_traitsIcEENS_9allocatorIcEEEENS5_IS7_EEEEEEvPT_, symObjAddr: 0x4D0, symBinAddr: 0x100008040, symSize: 0x10 }
  - { offsetInCU: 0x47F8, offset: 0x26827, size: 0x8, addend: 0x0, symName: __ZNSt3__118__debug_db_erase_cB7v160006INS_6vectorINS_12basic_stringIcNS_11char_traitsIcEENS_9allocatorIcEEEENS5_IS7_EEEEEEvPT_, symObjAddr: 0x760, symBinAddr: 0x1000082D0, symSize: 0x10 }
  - { offsetInCU: 0x4829, offset: 0x26858, size: 0x8, addend: 0x0, symName: __ZNSt3__112__to_addressB7v160006INS_12basic_stringIcNS_11char_traitsIcEENS_9allocatorIcEEEEEEPT_S8_, symObjAddr: 0x890, symBinAddr: 0x100008400, symSize: 0x10 }
  - { offsetInCU: 0x485E, offset: 0x2688D, size: 0x8, addend: 0x0, symName: __ZNSt3__115__debug_db_swapB7v160006INS_12basic_stringIcNS_11char_traitsIcEENS_9allocatorIcEEEEEEvPT_S8_, symObjAddr: 0xCB0, symBinAddr: 0x1000086C0, symSize: 0x10 }
  - { offsetInCU: 0x489D, offset: 0x268CC, size: 0x8, addend: 0x0, symName: __ZNSt3__13maxB7v160006ImEERKT_S3_S3_, symObjAddr: 0x1290, symBinAddr: 0x100008C40, symSize: 0x30 }
  - { offsetInCU: 0x48E0, offset: 0x2690F, size: 0x8, addend: 0x0, symName: __ZNSt3__13minB7v160006ImEERKT_S3_S3_, symObjAddr: 0x12C0, symBinAddr: 0x100008C70, symSize: 0x30 }
  - { offsetInCU: 0x4B0D, offset: 0x26B3C, size: 0x8, addend: 0x0, symName: __ZNSt3__13minB7v160006ImNS_6__lessImmEEEERKT_S5_S5_T0_, symObjAddr: 0x1340, symBinAddr: 0x100008CF0, symSize: 0x50 }
  - { offsetInCU: 0x4BA2, offset: 0x26BD1, size: 0x8, addend: 0x0, symName: __ZNSt3__120__throw_length_errorB7v160006EPKc, symObjAddr: 0x1420, symBinAddr: 0x100008DD0, symSize: 0x70 }
  - { offsetInCU: 0x4BCB, offset: 0x26BFA, size: 0x8, addend: 0x0, symName: __ZNSt3__13maxB7v160006ImNS_6__lessImmEEEERKT_S5_S5_T0_, symObjAddr: 0x1500, symBinAddr: 0x100008EB0, symSize: 0x50 }
  - { offsetInCU: 0x4C25, offset: 0x26C54, size: 0x8, addend: 0x0, symName: __ZNSt3__119__allocate_at_leastB7v160006INS_9allocatorINS_12basic_stringIcNS_11char_traitsIcEENS1_IcEEEEEEEENS_19__allocation_resultINS_16allocator_traitsIT_E7pointerEEERSA_m, symObjAddr: 0x1640, symBinAddr: 0x100008FF0, symSize: 0x40 }
  - { offsetInCU: 0x4C68, offset: 0x26C97, size: 0x8, addend: 0x0, symName: __ZNSt3__117__libcpp_allocateB7v160006Emm, symObjAddr: 0x17B0, symBinAddr: 0x100009160, symSize: 0x60 }
  - { offsetInCU: 0x4CC2, offset: 0x26CF1, size: 0x8, addend: 0x0, symName: __ZNSt3__121__libcpp_operator_newB7v160006IJmSt11align_val_tEEEPvDpT_, symObjAddr: 0x1810, symBinAddr: 0x1000091C0, symSize: 0x30 }
  - { offsetInCU: 0x4D0F, offset: 0x26D3E, size: 0x8, addend: 0x0, symName: __ZNSt3__121__libcpp_operator_newB7v160006IJmEEEPvDpT_, symObjAddr: 0x1840, symBinAddr: 0x1000091F0, symSize: 0x20 }
  - { offsetInCU: 0x4D48, offset: 0x26D77, size: 0x8, addend: 0x0, symName: __ZNSt3__142__uninitialized_allocator_move_if_noexceptB7v160006INS_9allocatorINS_12basic_stringIcNS_11char_traitsIcEENS1_IcEEEEEENS_16reverse_iteratorIPS6_EESA_SA_EET2_RT_T0_T1_SB_, symObjAddr: 0x18C0, symBinAddr: 0x100009270, symSize: 0x180 }
  - { offsetInCU: 0x4DE7, offset: 0x26E16, size: 0x8, addend: 0x0, symName: __ZNSt3__14swapB7v160006IPNS_12basic_stringIcNS_11char_traitsIcEENS_9allocatorIcEEEEEENS_9enable_ifIXaasr21is_move_constructibleIT_EE5valuesr18is_move_assignableIS9_EE5valueEvE4typeERS9_SC_, symObjAddr: 0x1A90, symBinAddr: 0x100009440, symSize: 0x40 }
  - { offsetInCU: 0x4E39, offset: 0x26E68, size: 0x8, addend: 0x0, symName: __ZNSt3__125__debug_db_invalidate_allB7v160006INS_6vectorINS_12basic_stringIcNS_11char_traitsIcEENS_9allocatorIcEEEENS5_IS7_EEEEEEvPT_, symObjAddr: 0x1B70, symBinAddr: 0x100009520, symSize: 0x10 }
  - { offsetInCU: 0x4E6A, offset: 0x26E99, size: 0x8, addend: 0x0, symName: __ZNSt3__122__make_exception_guardB7v160006INS_29_AllocatorDestroyRangeReverseINS_9allocatorINS_12basic_stringIcNS_11char_traitsIcEENS2_IcEEEEEENS_16reverse_iteratorIPS7_EEEEEENS_28__exception_guard_exceptionsIT_EESE_, symObjAddr: 0x1B80, symBinAddr: 0x100009530, symSize: 0x60 }
  - { offsetInCU: 0x4E9F, offset: 0x26ECE, size: 0x8, addend: 0x0, symName: __ZNSt3__1neB7v160006IPNS_12basic_stringIcNS_11char_traitsIcEENS_9allocatorIcEEEES7_EEbRKNS_16reverse_iteratorIT_EERKNS8_IT0_EE, symObjAddr: 0x1C20, symBinAddr: 0x1000095D0, symSize: 0x40 }
  - { offsetInCU: 0x4EEB, offset: 0x26F1A, size: 0x8, addend: 0x0, symName: __ZNSt3__112__to_addressB7v160006INS_16reverse_iteratorIPNS_12basic_stringIcNS_11char_traitsIcEENS_9allocatorIcEEEEEEvEENS_5decayIDTclsr19__to_address_helperIT_EE6__callclsr3stdE7declvalIRKSB_EEEEE4typeESD_, symObjAddr: 0x1C60, symBinAddr: 0x100009610, symSize: 0x20 }
  - { offsetInCU: 0x4F4B, offset: 0x26F7A, size: 0x8, addend: 0x0, symName: __ZNSt3__119__allocator_destroyB7v160006INS_9allocatorINS_12basic_stringIcNS_11char_traitsIcEENS1_IcEEEEEENS_16reverse_iteratorINS8_IPS6_EEEESB_EEvRT_T0_T1_, symObjAddr: 0x1F50, symBinAddr: 0x100009900, symSize: 0x70 }
  - { offsetInCU: 0x4FAE, offset: 0x26FDD, size: 0x8, addend: 0x0, symName: __ZNSt3__1neB7v160006INS_16reverse_iteratorIPNS_12basic_stringIcNS_11char_traitsIcEENS_9allocatorIcEEEEEES9_EEbRKNS1_IT_EERKNS1_IT0_EE, symObjAddr: 0x1FF0, symBinAddr: 0x1000099A0, symSize: 0x50 }
  - { offsetInCU: 0x4FFA, offset: 0x27029, size: 0x8, addend: 0x0, symName: __ZNSt3__112__to_addressB7v160006INS_16reverse_iteratorINS1_IPNS_12basic_stringIcNS_11char_traitsIcEENS_9allocatorIcEEEEEEEEvEENS_5decayIDTclsr19__to_address_helperIT_EE6__callclsr3stdE7declvalIRKSC_EEEEE4typeESE_, symObjAddr: 0x2040, symBinAddr: 0x1000099F0, symSize: 0x20 }
  - { offsetInCU: 0x52BB, offset: 0x272EA, size: 0x8, addend: 0x0, symName: __ZSt28__throw_bad_array_new_lengthB7v160006v, symObjAddr: 0x1770, symBinAddr: 0x100009120, symSize: 0x40 }
  - { offsetInCU: 0x55AA, offset: 0x275D9, size: 0x8, addend: 0x0, symName: __ZNSt3__16vectorINS_12basic_stringIcNS_11char_traitsIcEENS_9allocatorIcEEEENS4_IS6_EEE26__swap_out_circular_bufferERNS_14__split_bufferIS6_RS7_EE, symObjAddr: 0x10C0, symBinAddr: 0x100008A70, symSize: 0x130 }
  - { offsetInCU: 0x74D2, offset: 0x29501, size: 0x8, addend: 0x0, symName: __ZN3DesC2Ev, symObjAddr: 0x0, symBinAddr: 0x100007B80, symSize: 0x30 }
  - { offsetInCU: 0x74FE, offset: 0x2952D, size: 0x8, addend: 0x0, symName: __ZN3DesC1Ev, symObjAddr: 0x30, symBinAddr: 0x100007BB0, symSize: 0x20 }
  - { offsetInCU: 0x752A, offset: 0x29559, size: 0x8, addend: 0x0, symName: __ZN3Des8lancerDeEv, symObjAddr: 0x50, symBinAddr: 0x100007BD0, symSize: 0x30 }
  - { offsetInCU: 0x7551, offset: 0x29580, size: 0x8, addend: 0x0, symName: __ZN3Des9lancerDesERiS0_, symObjAddr: 0x80, symBinAddr: 0x100007C00, symSize: 0x40 }
  - { offsetInCU: 0x7595, offset: 0x295C4, size: 0x8, addend: 0x0, symName: __ZN3Des13getDiceImagesEii, symObjAddr: 0xC0, symBinAddr: 0x100007C40, symSize: 0x230 }
  - { offsetInCU: 0x75E9, offset: 0x29618, size: 0x8, addend: 0x0, symName: __ZNSt3__16vectorINS_12basic_stringIcNS_11char_traitsIcEENS_9allocatorIcEEEENS4_IS6_EEEC1B7v160006Ev, symObjAddr: 0x2F0, symBinAddr: 0x100007E70, symSize: 0x20 }
  - { offsetInCU: 0x7613, offset: 0x29642, size: 0x8, addend: 0x0, symName: __ZNSt3__16vectorINS_12basic_stringIcNS_11char_traitsIcEENS_9allocatorIcEEEENS4_IS6_EEE9push_backB7v160006EOS6_, symObjAddr: 0x310, symBinAddr: 0x100007E90, symSize: 0x60 }
  - { offsetInCU: 0x764A, offset: 0x29679, size: 0x8, addend: 0x0, symName: __ZNSt3__16vectorINS_12basic_stringIcNS_11char_traitsIcEENS_9allocatorIcEEEENS4_IS6_EEED1B7v160006Ev, symObjAddr: 0x410, symBinAddr: 0x100007F90, symSize: 0x20 }
  - { offsetInCU: 0x7674, offset: 0x296A3, size: 0x8, addend: 0x0, symName: __ZNSt3__16vectorINS_12basic_stringIcNS_11char_traitsIcEENS_9allocatorIcEEEENS4_IS6_EEEC2B7v160006Ev, symObjAddr: 0x430, symBinAddr: 0x100007FB0, symSize: 0x60 }
  - { offsetInCU: 0x76A8, offset: 0x296D7, size: 0x8, addend: 0x0, symName: __ZNSt3__117__compressed_pairIPNS_12basic_stringIcNS_11char_traitsIcEENS_9allocatorIcEEEENS4_IS6_EEEC1B7v160006IDnNS_18__default_init_tagEEEOT_OT0_, symObjAddr: 0x490, symBinAddr: 0x100008010, symSize: 0x30 }
  - { offsetInCU: 0x7700, offset: 0x2972F, size: 0x8, addend: 0x0, symName: __ZNSt3__117__compressed_pairIPNS_12basic_stringIcNS_11char_traitsIcEENS_9allocatorIcEEEENS4_IS6_EEEC2B7v160006IDnNS_18__default_init_tagEEEOT_OT0_, symObjAddr: 0x4E0, symBinAddr: 0x100008050, symSize: 0x40 }
  - { offsetInCU: 0x7758, offset: 0x29787, size: 0x8, addend: 0x0, symName: __ZNSt3__122__compressed_pair_elemIPNS_12basic_stringIcNS_11char_traitsIcEENS_9allocatorIcEEEELi0ELb0EEC2B7v160006IDnvEEOT_, symObjAddr: 0x520, symBinAddr: 0x100008090, symSize: 0x20 }
  - { offsetInCU: 0x779A, offset: 0x297C9, size: 0x8, addend: 0x0, symName: __ZNSt3__122__compressed_pair_elemINS_9allocatorINS_12basic_stringIcNS_11char_traitsIcEENS1_IcEEEEEELi1ELb1EEC2B7v160006ENS_18__default_init_tagE, symObjAddr: 0x540, symBinAddr: 0x1000080B0, symSize: 0x20 }
  - { offsetInCU: 0x77CF, offset: 0x297FE, size: 0x8, addend: 0x0, symName: __ZNSt3__19allocatorINS_12basic_stringIcNS_11char_traitsIcEENS0_IcEEEEEC2B7v160006Ev, symObjAddr: 0x560, symBinAddr: 0x1000080D0, symSize: 0x20 }
  - { offsetInCU: 0x77F9, offset: 0x29828, size: 0x8, addend: 0x0, symName: __ZNSt3__116__non_trivial_ifILb1ENS_9allocatorINS_12basic_stringIcNS_11char_traitsIcEENS1_IcEEEEEEEC2B7v160006Ev, symObjAddr: 0x580, symBinAddr: 0x1000080F0, symSize: 0x10 }
  - { offsetInCU: 0x7823, offset: 0x29852, size: 0x8, addend: 0x0, symName: __ZNSt3__16vectorINS_12basic_stringIcNS_11char_traitsIcEENS_9allocatorIcEEEENS4_IS6_EEED2B7v160006Ev, symObjAddr: 0x590, symBinAddr: 0x100008100, symSize: 0x40 }
  - { offsetInCU: 0x784D, offset: 0x2987C, size: 0x8, addend: 0x0, symName: __ZNSt3__16vectorINS_12basic_stringIcNS_11char_traitsIcEENS_9allocatorIcEEEENS4_IS6_EEE16__destroy_vectorC1ERS8_, symObjAddr: 0x5D0, symBinAddr: 0x100008140, symSize: 0x30 }
  - { offsetInCU: 0x7886, offset: 0x298B5, size: 0x8, addend: 0x0, symName: __ZNSt3__16vectorINS_12basic_stringIcNS_11char_traitsIcEENS_9allocatorIcEEEENS4_IS6_EEE16__destroy_vectorclB7v160006Ev, symObjAddr: 0x600, symBinAddr: 0x100008170, symSize: 0x90 }
  - { offsetInCU: 0x78AC, offset: 0x298DB, size: 0x8, addend: 0x0, symName: __ZNSt3__16vectorINS_12basic_stringIcNS_11char_traitsIcEENS_9allocatorIcEEEENS4_IS6_EEE16__destroy_vectorC2ERS8_, symObjAddr: 0x690, symBinAddr: 0x100008200, symSize: 0x20 }
  - { offsetInCU: 0x78E5, offset: 0x29914, size: 0x8, addend: 0x0, symName: __ZNKSt3__16vectorINS_12basic_stringIcNS_11char_traitsIcEENS_9allocatorIcEEEENS4_IS6_EEE17__annotate_deleteB7v160006Ev, symObjAddr: 0x6B0, symBinAddr: 0x100008220, symSize: 0xB0 }
  - { offsetInCU: 0x790B, offset: 0x2993A, size: 0x8, addend: 0x0, symName: __ZNSt3__16vectorINS_12basic_stringIcNS_11char_traitsIcEENS_9allocatorIcEEEENS4_IS6_EEE7__clearB7v160006Ev, symObjAddr: 0x770, symBinAddr: 0x1000082E0, symSize: 0x20 }
  - { offsetInCU: 0x7931, offset: 0x29960, size: 0x8, addend: 0x0, symName: __ZNSt3__116allocator_traitsINS_9allocatorINS_12basic_stringIcNS_11char_traitsIcEENS1_IcEEEEEEE10deallocateB7v160006ERS7_PS6_m, symObjAddr: 0x790, symBinAddr: 0x100008300, symSize: 0x30 }
  - { offsetInCU: 0x7973, offset: 0x299A2, size: 0x8, addend: 0x0, symName: __ZNSt3__16vectorINS_12basic_stringIcNS_11char_traitsIcEENS_9allocatorIcEEEENS4_IS6_EEE7__allocB7v160006Ev, symObjAddr: 0x7C0, symBinAddr: 0x100008330, symSize: 0x20 }
  - { offsetInCU: 0x7999, offset: 0x299C8, size: 0x8, addend: 0x0, symName: __ZNKSt3__16vectorINS_12basic_stringIcNS_11char_traitsIcEENS_9allocatorIcEEEENS4_IS6_EEE8capacityB7v160006Ev, symObjAddr: 0x7E0, symBinAddr: 0x100008350, symSize: 0x40 }
  - { offsetInCU: 0x79BF, offset: 0x299EE, size: 0x8, addend: 0x0, symName: __ZNKSt3__16vectorINS_12basic_stringIcNS_11char_traitsIcEENS_9allocatorIcEEEENS4_IS6_EEE31__annotate_contiguous_containerB7v160006EPKvSA_SA_SA_, symObjAddr: 0x820, symBinAddr: 0x100008390, symSize: 0x20 }
  - { offsetInCU: 0x7A15, offset: 0x29A44, size: 0x8, addend: 0x0, symName: __ZNKSt3__16vectorINS_12basic_stringIcNS_11char_traitsIcEENS_9allocatorIcEEEENS4_IS6_EEE4dataB7v160006Ev, symObjAddr: 0x840, symBinAddr: 0x1000083B0, symSize: 0x20 }
  - { offsetInCU: 0x7A3B, offset: 0x29A6A, size: 0x8, addend: 0x0, symName: __ZNKSt3__16vectorINS_12basic_stringIcNS_11char_traitsIcEENS_9allocatorIcEEEENS4_IS6_EEE4sizeB7v160006Ev, symObjAddr: 0x860, symBinAddr: 0x1000083D0, symSize: 0x30 }
  - { offsetInCU: 0x7A61, offset: 0x29A90, size: 0x8, addend: 0x0, symName: __ZNSt3__16vectorINS_12basic_stringIcNS_11char_traitsIcEENS_9allocatorIcEEEENS4_IS6_EEE22__base_destruct_at_endB7v160006EPS6_, symObjAddr: 0x8A0, symBinAddr: 0x100008410, symSize: 0x80 }
  - { offsetInCU: 0x7AA5, offset: 0x29AD4, size: 0x8, addend: 0x0, symName: __ZNSt3__116allocator_traitsINS_9allocatorINS_12basic_stringIcNS_11char_traitsIcEENS1_IcEEEEEEE7destroyB7v160006IS6_vEEvRS7_PT_, symObjAddr: 0x920, symBinAddr: 0x100008490, symSize: 0x30 }
  - { offsetInCU: 0x7AE2, offset: 0x29B11, size: 0x8, addend: 0x0, symName: __ZNSt3__19allocatorINS_12basic_stringIcNS_11char_traitsIcEENS0_IcEEEEE7destroyB7v160006EPS5_, symObjAddr: 0x950, symBinAddr: 0x1000084C0, symSize: 0x20 }
  - { offsetInCU: 0x7B16, offset: 0x29B45, size: 0x8, addend: 0x0, symName: __ZNSt3__19allocatorINS_12basic_stringIcNS_11char_traitsIcEENS0_IcEEEEE10deallocateB7v160006EPS5_m, symObjAddr: 0x970, symBinAddr: 0x1000084E0, symSize: 0x50 }
  - { offsetInCU: 0x7B58, offset: 0x29B87, size: 0x8, addend: 0x0, symName: __ZNSt3__117__compressed_pairIPNS_12basic_stringIcNS_11char_traitsIcEENS_9allocatorIcEEEENS4_IS6_EEE6secondB7v160006Ev, symObjAddr: 0xAE0, symBinAddr: 0x100008530, symSize: 0x20 }
  - { offsetInCU: 0x7B7E, offset: 0x29BAD, size: 0x8, addend: 0x0, symName: __ZNSt3__122__compressed_pair_elemINS_9allocatorINS_12basic_stringIcNS_11char_traitsIcEENS1_IcEEEEEELi1ELb1EE5__getB7v160006Ev, symObjAddr: 0xB00, symBinAddr: 0x100008550, symSize: 0x10 }
  - { offsetInCU: 0x7BA4, offset: 0x29BD3, size: 0x8, addend: 0x0, symName: __ZNKSt3__16vectorINS_12basic_stringIcNS_11char_traitsIcEENS_9allocatorIcEEEENS4_IS6_EEE9__end_capB7v160006Ev, symObjAddr: 0xB10, symBinAddr: 0x100008560, symSize: 0x20 }
  - { offsetInCU: 0x7BCA, offset: 0x29BF9, size: 0x8, addend: 0x0, symName: __ZNKSt3__117__compressed_pairIPNS_12basic_stringIcNS_11char_traitsIcEENS_9allocatorIcEEEENS4_IS6_EEE5firstB7v160006Ev, symObjAddr: 0xB30, symBinAddr: 0x100008580, symSize: 0x20 }
  - { offsetInCU: 0x7BF0, offset: 0x29C1F, size: 0x8, addend: 0x0, symName: __ZNKSt3__122__compressed_pair_elemIPNS_12basic_stringIcNS_11char_traitsIcEENS_9allocatorIcEEEELi0ELb0EE5__getB7v160006Ev, symObjAddr: 0xB50, symBinAddr: 0x1000085A0, symSize: 0x10 }
  - { offsetInCU: 0x7C16, offset: 0x29C45, size: 0x8, addend: 0x0, symName: __ZNSt3__112basic_stringIcNS_11char_traitsIcEENS_9allocatorIcEEEC1B7v160006EOS5_, symObjAddr: 0xB60, symBinAddr: 0x1000085B0, symSize: 0x30 }
  - { offsetInCU: 0x7C4F, offset: 0x29C7E, size: 0x8, addend: 0x0, symName: __ZNSt3__112basic_stringIcNS_11char_traitsIcEENS_9allocatorIcEEEC2B7v160006EOS5_, symObjAddr: 0xB90, symBinAddr: 0x1000085E0, symSize: 0x90 }
  - { offsetInCU: 0x7C88, offset: 0x29CB7, size: 0x8, addend: 0x0, symName: __ZNSt3__112basic_stringIcNS_11char_traitsIcEENS_9allocatorIcEEE14__default_initB7v160006Ev, symObjAddr: 0xC20, symBinAddr: 0x100008670, symSize: 0x50 }
  - { offsetInCU: 0x7CAE, offset: 0x29CDD, size: 0x8, addend: 0x0, symName: __ZNSt3__16vectorINS_12basic_stringIcNS_11char_traitsIcEENS_9allocatorIcEEEENS4_IS6_EEE9__end_capB7v160006Ev, symObjAddr: 0xD20, symBinAddr: 0x1000086D0, symSize: 0x20 }
  - { offsetInCU: 0x7CD9, offset: 0x29D08, size: 0x8, addend: 0x0, symName: __ZNSt3__16vectorINS_12basic_stringIcNS_11char_traitsIcEENS_9allocatorIcEEEENS4_IS6_EEE22__construct_one_at_endB7v160006IJS6_EEEvDpOT_, symObjAddr: 0xD40, symBinAddr: 0x1000086F0, symSize: 0x90 }
  - { offsetInCU: 0x7D28, offset: 0x29D57, size: 0x8, addend: 0x0, symName: __ZNSt3__16vectorINS_12basic_stringIcNS_11char_traitsIcEENS_9allocatorIcEEEENS4_IS6_EEE21__push_back_slow_pathIS6_EEvOT_, symObjAddr: 0xDD0, symBinAddr: 0x100008780, symSize: 0xD0 }
  - { offsetInCU: 0x7D86, offset: 0x29DB5, size: 0x8, addend: 0x0, symName: __ZNSt3__117__compressed_pairIPNS_12basic_stringIcNS_11char_traitsIcEENS_9allocatorIcEEEENS4_IS6_EEE5firstB7v160006Ev, symObjAddr: 0xEA0, symBinAddr: 0x100008850, symSize: 0x20 }
  - { offsetInCU: 0x7DAC, offset: 0x29DDB, size: 0x8, addend: 0x0, symName: __ZNSt3__122__compressed_pair_elemIPNS_12basic_stringIcNS_11char_traitsIcEENS_9allocatorIcEEEELi0ELb0EE5__getB7v160006Ev, symObjAddr: 0xEC0, symBinAddr: 0x100008870, symSize: 0x10 }
  - { offsetInCU: 0x7DEB, offset: 0x29E1A, size: 0x8, addend: 0x0, symName: __ZNSt3__16vectorINS_12basic_stringIcNS_11char_traitsIcEENS_9allocatorIcEEEENS4_IS6_EEE21_ConstructTransactionC1B7v160006ERS8_m, symObjAddr: 0xED0, symBinAddr: 0x100008880, symSize: 0x30 }
  - { offsetInCU: 0x7E33, offset: 0x29E62, size: 0x8, addend: 0x0, symName: __ZNSt3__116allocator_traitsINS_9allocatorINS_12basic_stringIcNS_11char_traitsIcEENS1_IcEEEEEEE9constructB7v160006IS6_JS6_EvEEvRS7_PT_DpOT0_, symObjAddr: 0xF00, symBinAddr: 0x1000088B0, symSize: 0x30 }
  - { offsetInCU: 0x7E8A, offset: 0x29EB9, size: 0x8, addend: 0x0, symName: __ZNSt3__16vectorINS_12basic_stringIcNS_11char_traitsIcEENS_9allocatorIcEEEENS4_IS6_EEE21_ConstructTransactionD1B7v160006Ev, symObjAddr: 0xF30, symBinAddr: 0x1000088E0, symSize: 0x20 }
  - { offsetInCU: 0x7EB4, offset: 0x29EE3, size: 0x8, addend: 0x0, symName: __ZNSt3__16vectorINS_12basic_stringIcNS_11char_traitsIcEENS_9allocatorIcEEEENS4_IS6_EEE21_ConstructTransactionC2B7v160006ERS8_m, symObjAddr: 0xF50, symBinAddr: 0x100008900, symSize: 0x40 }
  - { offsetInCU: 0x7EFC, offset: 0x29F2B, size: 0x8, addend: 0x0, symName: __ZNSt3__19allocatorINS_12basic_stringIcNS_11char_traitsIcEENS0_IcEEEEE9constructB7v160006IS5_JS5_EEEvPT_DpOT0_, symObjAddr: 0xF90, symBinAddr: 0x100008940, symSize: 0x30 }
  - { offsetInCU: 0x7F52, offset: 0x29F81, size: 0x8, addend: 0x0, symName: __ZNSt3__16vectorINS_12basic_stringIcNS_11char_traitsIcEENS_9allocatorIcEEEENS4_IS6_EEE21_ConstructTransactionD2B7v160006Ev, symObjAddr: 0xFC0, symBinAddr: 0x100008970, symSize: 0x20 }
  - { offsetInCU: 0x7F7C, offset: 0x29FAB, size: 0x8, addend: 0x0, symName: __ZNKSt3__16vectorINS_12basic_stringIcNS_11char_traitsIcEENS_9allocatorIcEEEENS4_IS6_EEE11__recommendB7v160006Em, symObjAddr: 0xFE0, symBinAddr: 0x100008990, symSize: 0xA0 }
  - { offsetInCU: 0x7FD2, offset: 0x2A001, size: 0x8, addend: 0x0, symName: __ZNSt3__114__split_bufferINS_12basic_stringIcNS_11char_traitsIcEENS_9allocatorIcEEEERNS4_IS6_EEEC1EmmS8_, symObjAddr: 0x1080, symBinAddr: 0x100008A30, symSize: 0x40 }
  - { offsetInCU: 0x8028, offset: 0x2A057, size: 0x8, addend: 0x0, symName: __ZNSt3__114__split_bufferINS_12basic_stringIcNS_11char_traitsIcEENS_9allocatorIcEEEERNS4_IS6_EEED1Ev, symObjAddr: 0x11F0, symBinAddr: 0x100008BA0, symSize: 0x20 }
  - { offsetInCU: 0x8053, offset: 0x2A082, size: 0x8, addend: 0x0, symName: __ZNKSt3__16vectorINS_12basic_stringIcNS_11char_traitsIcEENS_9allocatorIcEEEENS4_IS6_EEE8max_sizeEv, symObjAddr: 0x1210, symBinAddr: 0x100008BC0, symSize: 0x60 }
  - { offsetInCU: 0x807B, offset: 0x2A0AA, size: 0x8, addend: 0x0, symName: __ZNKSt3__16vectorINS_12basic_stringIcNS_11char_traitsIcEENS_9allocatorIcEEEENS4_IS6_EEE20__throw_length_errorB7v160006Ev, symObjAddr: 0x1270, symBinAddr: 0x100008C20, symSize: 0x20 }
  - { offsetInCU: 0x80AB, offset: 0x2A0DA, size: 0x8, addend: 0x0, symName: __ZNSt3__116allocator_traitsINS_9allocatorINS_12basic_stringIcNS_11char_traitsIcEENS1_IcEEEEEEE8max_sizeB7v160006IS7_vEEmRKS7_, symObjAddr: 0x12F0, symBinAddr: 0x100008CA0, symSize: 0x20 }
  - { offsetInCU: 0x80D9, offset: 0x2A108, size: 0x8, addend: 0x0, symName: __ZNKSt3__16vectorINS_12basic_stringIcNS_11char_traitsIcEENS_9allocatorIcEEEENS4_IS6_EEE7__allocB7v160006Ev, symObjAddr: 0x1310, symBinAddr: 0x100008CC0, symSize: 0x20 }
  - { offsetInCU: 0x8100, offset: 0x2A12F, size: 0x8, addend: 0x0, symName: __ZNSt3__114numeric_limitsIlE3maxB7v160006Ev, symObjAddr: 0x1330, symBinAddr: 0x100008CE0, symSize: 0x10 }
  - { offsetInCU: 0x8127, offset: 0x2A156, size: 0x8, addend: 0x0, symName: __ZNKSt3__16__lessImmEclB7v160006ERKmS3_, symObjAddr: 0x1390, symBinAddr: 0x100008D40, symSize: 0x30 }
  - { offsetInCU: 0x8169, offset: 0x2A198, size: 0x8, addend: 0x0, symName: __ZNKSt3__19allocatorINS_12basic_stringIcNS_11char_traitsIcEENS0_IcEEEEE8max_sizeB7v160006Ev, symObjAddr: 0x13C0, symBinAddr: 0x100008D70, symSize: 0x20 }
  - { offsetInCU: 0x818F, offset: 0x2A1BE, size: 0x8, addend: 0x0, symName: __ZNKSt3__117__compressed_pairIPNS_12basic_stringIcNS_11char_traitsIcEENS_9allocatorIcEEEENS4_IS6_EEE6secondB7v160006Ev, symObjAddr: 0x13E0, symBinAddr: 0x100008D90, symSize: 0x20 }
  - { offsetInCU: 0x81B5, offset: 0x2A1E4, size: 0x8, addend: 0x0, symName: __ZNKSt3__122__compressed_pair_elemINS_9allocatorINS_12basic_stringIcNS_11char_traitsIcEENS1_IcEEEEEELi1ELb1EE5__getB7v160006Ev, symObjAddr: 0x1400, symBinAddr: 0x100008DB0, symSize: 0x10 }
  - { offsetInCU: 0x81DC, offset: 0x2A20B, size: 0x8, addend: 0x0, symName: __ZNSt3__123__libcpp_numeric_limitsIlLb1EE3maxB7v160006Ev, symObjAddr: 0x1410, symBinAddr: 0x100008DC0, symSize: 0x10 }
  - { offsetInCU: 0x81EF, offset: 0x2A21E, size: 0x8, addend: 0x0, symName: __ZNSt12length_errorC1B7v160006EPKc, symObjAddr: 0x1490, symBinAddr: 0x100008E40, symSize: 0x30 }
  - { offsetInCU: 0x8227, offset: 0x2A256, size: 0x8, addend: 0x0, symName: __ZNSt12length_errorC2B7v160006EPKc, symObjAddr: 0x14C0, symBinAddr: 0x100008E70, symSize: 0x40 }
  - { offsetInCU: 0x8260, offset: 0x2A28F, size: 0x8, addend: 0x0, symName: __ZNSt3__114__split_bufferINS_12basic_stringIcNS_11char_traitsIcEENS_9allocatorIcEEEERNS4_IS6_EEEC2EmmS8_, symObjAddr: 0x1550, symBinAddr: 0x100008F00, symSize: 0xC0 }
  - { offsetInCU: 0x82D2, offset: 0x2A301, size: 0x8, addend: 0x0, symName: __ZNSt3__117__compressed_pairIPNS_12basic_stringIcNS_11char_traitsIcEENS_9allocatorIcEEEERNS4_IS6_EEEC1B7v160006IDnS9_EEOT_OT0_, symObjAddr: 0x1610, symBinAddr: 0x100008FC0, symSize: 0x30 }
  - { offsetInCU: 0x832A, offset: 0x2A359, size: 0x8, addend: 0x0, symName: __ZNSt3__114__split_bufferINS_12basic_stringIcNS_11char_traitsIcEENS_9allocatorIcEEEERNS4_IS6_EEE7__allocB7v160006Ev, symObjAddr: 0x1680, symBinAddr: 0x100009030, symSize: 0x20 }
  - { offsetInCU: 0x8350, offset: 0x2A37F, size: 0x8, addend: 0x0, symName: __ZNSt3__114__split_bufferINS_12basic_stringIcNS_11char_traitsIcEENS_9allocatorIcEEEERNS4_IS6_EEE9__end_capB7v160006Ev, symObjAddr: 0x16A0, symBinAddr: 0x100009050, symSize: 0x20 }
  - { offsetInCU: 0x8376, offset: 0x2A3A5, size: 0x8, addend: 0x0, symName: __ZNSt3__117__compressed_pairIPNS_12basic_stringIcNS_11char_traitsIcEENS_9allocatorIcEEEERNS4_IS6_EEEC2B7v160006IDnS9_EEOT_OT0_, symObjAddr: 0x16C0, symBinAddr: 0x100009070, symSize: 0x40 }
  - { offsetInCU: 0x83CE, offset: 0x2A3FD, size: 0x8, addend: 0x0, symName: __ZNSt3__122__compressed_pair_elemIRNS_9allocatorINS_12basic_stringIcNS_11char_traitsIcEENS1_IcEEEEEELi1ELb0EEC2B7v160006IS8_vEEOT_, symObjAddr: 0x1700, symBinAddr: 0x1000090B0, symSize: 0x20 }
  - { offsetInCU: 0x8410, offset: 0x2A43F, size: 0x8, addend: 0x0, symName: __ZNSt3__19allocatorINS_12basic_stringIcNS_11char_traitsIcEENS0_IcEEEEE8allocateB7v160006Em, symObjAddr: 0x1720, symBinAddr: 0x1000090D0, symSize: 0x50 }
  - { offsetInCU: 0x8444, offset: 0x2A473, size: 0x8, addend: 0x0, symName: __ZNSt3__117__compressed_pairIPNS_12basic_stringIcNS_11char_traitsIcEENS_9allocatorIcEEEERNS4_IS6_EEE6secondB7v160006Ev, symObjAddr: 0x1860, symBinAddr: 0x100009210, symSize: 0x20 }
  - { offsetInCU: 0x846A, offset: 0x2A499, size: 0x8, addend: 0x0, symName: __ZNSt3__122__compressed_pair_elemIRNS_9allocatorINS_12basic_stringIcNS_11char_traitsIcEENS1_IcEEEEEELi1ELb0EE5__getB7v160006Ev, symObjAddr: 0x1880, symBinAddr: 0x100009230, symSize: 0x20 }
  - { offsetInCU: 0x8490, offset: 0x2A4BF, size: 0x8, addend: 0x0, symName: __ZNSt3__117__compressed_pairIPNS_12basic_stringIcNS_11char_traitsIcEENS_9allocatorIcEEEERNS4_IS6_EEE5firstB7v160006Ev, symObjAddr: 0x18A0, symBinAddr: 0x100009250, symSize: 0x20 }
  - { offsetInCU: 0x84B6, offset: 0x2A4E5, size: 0x8, addend: 0x0, symName: __ZNSt3__116reverse_iteratorIPNS_12basic_stringIcNS_11char_traitsIcEENS_9allocatorIcEEEEEC1B7v160006ES7_, symObjAddr: 0x1A40, symBinAddr: 0x1000093F0, symSize: 0x30 }
  - { offsetInCU: 0x84EE, offset: 0x2A51D, size: 0x8, addend: 0x0, symName: __ZNKSt3__116reverse_iteratorIPNS_12basic_stringIcNS_11char_traitsIcEENS_9allocatorIcEEEEE4baseB7v160006Ev, symObjAddr: 0x1A70, symBinAddr: 0x100009420, symSize: 0x20 }
  - { offsetInCU: 0x8514, offset: 0x2A543, size: 0x8, addend: 0x0, symName: __ZNKSt3__16vectorINS_12basic_stringIcNS_11char_traitsIcEENS_9allocatorIcEEEENS4_IS6_EEE14__annotate_newB7v160006Em, symObjAddr: 0x1AD0, symBinAddr: 0x100009480, symSize: 0xA0 }
  - { offsetInCU: 0x8549, offset: 0x2A578, size: 0x8, addend: 0x0, symName: __ZNSt3__129_AllocatorDestroyRangeReverseINS_9allocatorINS_12basic_stringIcNS_11char_traitsIcEENS1_IcEEEEEENS_16reverse_iteratorIPS6_EEEC1B7v160006ERS7_RSA_SD_, symObjAddr: 0x1BE0, symBinAddr: 0x100009590, symSize: 0x40 }
  - { offsetInCU: 0x85A0, offset: 0x2A5CF, size: 0x8, addend: 0x0, symName: __ZNKSt3__116reverse_iteratorIPNS_12basic_stringIcNS_11char_traitsIcEENS_9allocatorIcEEEEEdeB7v160006Ev, symObjAddr: 0x1C80, symBinAddr: 0x100009630, symSize: 0x30 }
  - { offsetInCU: 0x85D5, offset: 0x2A604, size: 0x8, addend: 0x0, symName: __ZNSt3__116reverse_iteratorIPNS_12basic_stringIcNS_11char_traitsIcEENS_9allocatorIcEEEEEppB7v160006Ev, symObjAddr: 0x1CB0, symBinAddr: 0x100009660, symSize: 0x20 }
  - { offsetInCU: 0x85FB, offset: 0x2A62A, size: 0x8, addend: 0x0, symName: __ZNSt3__128__exception_guard_exceptionsINS_29_AllocatorDestroyRangeReverseINS_9allocatorINS_12basic_stringIcNS_11char_traitsIcEENS2_IcEEEEEENS_16reverse_iteratorIPS7_EEEEE10__completeB7v160006Ev, symObjAddr: 0x1CD0, symBinAddr: 0x100009680, symSize: 0x20 }
  - { offsetInCU: 0x8621, offset: 0x2A650, size: 0x8, addend: 0x0, symName: __ZNSt3__128__exception_guard_exceptionsINS_29_AllocatorDestroyRangeReverseINS_9allocatorINS_12basic_stringIcNS_11char_traitsIcEENS2_IcEEEEEENS_16reverse_iteratorIPS7_EEEEED1B7v160006Ev, symObjAddr: 0x1CF0, symBinAddr: 0x1000096A0, symSize: 0x20 }
  - { offsetInCU: 0x864B, offset: 0x2A67A, size: 0x8, addend: 0x0, symName: __ZNSt3__128__exception_guard_exceptionsINS_29_AllocatorDestroyRangeReverseINS_9allocatorINS_12basic_stringIcNS_11char_traitsIcEENS2_IcEEEEEENS_16reverse_iteratorIPS7_EEEEEC1B7v160006ESC_, symObjAddr: 0x1D10, symBinAddr: 0x1000096C0, symSize: 0x40 }
  - { offsetInCU: 0x8683, offset: 0x2A6B2, size: 0x8, addend: 0x0, symName: __ZNSt3__128__exception_guard_exceptionsINS_29_AllocatorDestroyRangeReverseINS_9allocatorINS_12basic_stringIcNS_11char_traitsIcEENS2_IcEEEEEENS_16reverse_iteratorIPS7_EEEEEC2B7v160006ESC_, symObjAddr: 0x1D50, symBinAddr: 0x100009700, symSize: 0x30 }
  - { offsetInCU: 0x86BB, offset: 0x2A6EA, size: 0x8, addend: 0x0, symName: __ZNSt3__129_AllocatorDestroyRangeReverseINS_9allocatorINS_12basic_stringIcNS_11char_traitsIcEENS1_IcEEEEEENS_16reverse_iteratorIPS6_EEEC2B7v160006ERS7_RSA_SD_, symObjAddr: 0x1D80, symBinAddr: 0x100009730, symSize: 0x40 }
  - { offsetInCU: 0x8717, offset: 0x2A746, size: 0x8, addend: 0x0, symName: __ZNSt3__119__to_address_helperINS_16reverse_iteratorIPNS_12basic_stringIcNS_11char_traitsIcEENS_9allocatorIcEEEEEEvE6__callB7v160006ERKS9_, symObjAddr: 0x1DC0, symBinAddr: 0x100009770, symSize: 0x40 }
  - { offsetInCU: 0x873A, offset: 0x2A769, size: 0x8, addend: 0x0, symName: __ZNKSt3__116reverse_iteratorIPNS_12basic_stringIcNS_11char_traitsIcEENS_9allocatorIcEEEEEptB7v160006Ev, symObjAddr: 0x1E00, symBinAddr: 0x1000097B0, symSize: 0x20 }
  - { offsetInCU: 0x8760, offset: 0x2A78F, size: 0x8, addend: 0x0, symName: __ZNSt3__128__exception_guard_exceptionsINS_29_AllocatorDestroyRangeReverseINS_9allocatorINS_12basic_stringIcNS_11char_traitsIcEENS2_IcEEEEEENS_16reverse_iteratorIPS7_EEEEED2B7v160006Ev, symObjAddr: 0x1E20, symBinAddr: 0x1000097D0, symSize: 0x40 }
  - { offsetInCU: 0x878A, offset: 0x2A7B9, size: 0x8, addend: 0x0, symName: __ZNKSt3__129_AllocatorDestroyRangeReverseINS_9allocatorINS_12basic_stringIcNS_11char_traitsIcEENS1_IcEEEEEENS_16reverse_iteratorIPS6_EEEclB7v160006Ev, symObjAddr: 0x1E60, symBinAddr: 0x100009810, symSize: 0xF0 }
  - { offsetInCU: 0x87B1, offset: 0x2A7E0, size: 0x8, addend: 0x0, symName: __ZNSt3__116reverse_iteratorINS0_IPNS_12basic_stringIcNS_11char_traitsIcEENS_9allocatorIcEEEEEEEC1B7v160006ES8_, symObjAddr: 0x1FC0, symBinAddr: 0x100009970, symSize: 0x30 }
  - { offsetInCU: 0x87E9, offset: 0x2A818, size: 0x8, addend: 0x0, symName: __ZNSt3__116reverse_iteratorINS0_IPNS_12basic_stringIcNS_11char_traitsIcEENS_9allocatorIcEEEEEEEppB7v160006Ev, symObjAddr: 0x2060, symBinAddr: 0x100009A10, symSize: 0x30 }
  - { offsetInCU: 0x880F, offset: 0x2A83E, size: 0x8, addend: 0x0, symName: __ZNKSt3__116reverse_iteratorINS0_IPNS_12basic_stringIcNS_11char_traitsIcEENS_9allocatorIcEEEEEEE4baseB7v160006Ev, symObjAddr: 0x2090, symBinAddr: 0x100009A40, symSize: 0x20 }
  - { offsetInCU: 0x883A, offset: 0x2A869, size: 0x8, addend: 0x0, symName: __ZNSt3__119__to_address_helperINS_16reverse_iteratorINS1_IPNS_12basic_stringIcNS_11char_traitsIcEENS_9allocatorIcEEEEEEEEvE6__callB7v160006ERKSA_, symObjAddr: 0x20B0, symBinAddr: 0x100009A60, symSize: 0x40 }
  - { offsetInCU: 0x885D, offset: 0x2A88C, size: 0x8, addend: 0x0, symName: __ZNKSt3__116reverse_iteratorINS0_IPNS_12basic_stringIcNS_11char_traitsIcEENS_9allocatorIcEEEEEEEptB7v160006Ev, symObjAddr: 0x20F0, symBinAddr: 0x100009AA0, symSize: 0x20 }
  - { offsetInCU: 0x8883, offset: 0x2A8B2, size: 0x8, addend: 0x0, symName: __ZNKSt3__116reverse_iteratorINS0_IPNS_12basic_stringIcNS_11char_traitsIcEENS_9allocatorIcEEEEEEEdeB7v160006Ev, symObjAddr: 0x2110, symBinAddr: 0x100009AC0, symSize: 0x40 }
  - { offsetInCU: 0x88B8, offset: 0x2A8E7, size: 0x8, addend: 0x0, symName: __ZNSt3__116reverse_iteratorIPNS_12basic_stringIcNS_11char_traitsIcEENS_9allocatorIcEEEEEmmB7v160006Ev, symObjAddr: 0x2150, symBinAddr: 0x100009B00, symSize: 0x20 }
  - { offsetInCU: 0x88DE, offset: 0x2A90D, size: 0x8, addend: 0x0, symName: __ZNSt3__116reverse_iteratorINS0_IPNS_12basic_stringIcNS_11char_traitsIcEENS_9allocatorIcEEEEEEEC2B7v160006ES8_, symObjAddr: 0x2170, symBinAddr: 0x100009B20, symSize: 0x40 }
  - { offsetInCU: 0x8916, offset: 0x2A945, size: 0x8, addend: 0x0, symName: __ZNSt3__116reverse_iteratorIPNS_12basic_stringIcNS_11char_traitsIcEENS_9allocatorIcEEEEEC2B7v160006ES7_, symObjAddr: 0x21B0, symBinAddr: 0x100009B60, symSize: 0x30 }
  - { offsetInCU: 0x894F, offset: 0x2A97E, size: 0x8, addend: 0x0, symName: __ZNSt3__114__split_bufferINS_12basic_stringIcNS_11char_traitsIcEENS_9allocatorIcEEEERNS4_IS6_EEED2Ev, symObjAddr: 0x21E0, symBinAddr: 0x100009B90, symSize: 0x70 }
  - { offsetInCU: 0x897A, offset: 0x2A9A9, size: 0x8, addend: 0x0, symName: __ZNSt3__114__split_bufferINS_12basic_stringIcNS_11char_traitsIcEENS_9allocatorIcEEEERNS4_IS6_EEE5clearB7v160006Ev, symObjAddr: 0x2250, symBinAddr: 0x100009C00, symSize: 0x20 }
  - { offsetInCU: 0x89A0, offset: 0x2A9CF, size: 0x8, addend: 0x0, symName: __ZNKSt3__114__split_bufferINS_12basic_stringIcNS_11char_traitsIcEENS_9allocatorIcEEEERNS4_IS6_EEE8capacityB7v160006Ev, symObjAddr: 0x2270, symBinAddr: 0x100009C20, symSize: 0x40 }
  - { offsetInCU: 0x89C6, offset: 0x2A9F5, size: 0x8, addend: 0x0, symName: __ZNSt3__114__split_bufferINS_12basic_stringIcNS_11char_traitsIcEENS_9allocatorIcEEEERNS4_IS6_EEE17__destruct_at_endB7v160006EPS6_, symObjAddr: 0x22B0, symBinAddr: 0x100009C60, symSize: 0x30 }
  - { offsetInCU: 0x89FA, offset: 0x2AA29, size: 0x8, addend: 0x0, symName: __ZNSt3__114__split_bufferINS_12basic_stringIcNS_11char_traitsIcEENS_9allocatorIcEEEERNS4_IS6_EEE17__destruct_at_endB7v160006EPS6_NS_17integral_constantIbLb0EEE, symObjAddr: 0x22E0, symBinAddr: 0x100009C90, symSize: 0x80 }
  - { offsetInCU: 0x8A3B, offset: 0x2AA6A, size: 0x8, addend: 0x0, symName: __ZNKSt3__114__split_bufferINS_12basic_stringIcNS_11char_traitsIcEENS_9allocatorIcEEEERNS4_IS6_EEE9__end_capB7v160006Ev, symObjAddr: 0x2360, symBinAddr: 0x100009D10, symSize: 0x20 }
  - { offsetInCU: 0x8A61, offset: 0x2AA90, size: 0x8, addend: 0x0, symName: __ZNKSt3__117__compressed_pairIPNS_12basic_stringIcNS_11char_traitsIcEENS_9allocatorIcEEEERNS4_IS6_EEE5firstB7v160006Ev, symObjAddr: 0x2380, symBinAddr: 0x100009D30, symSize: 0x1B }
  - { offsetInCU: 0x48F8, offset: 0x2F430, size: 0x8, addend: 0x0, symName: __ZN4PionC2ERKNSt3__112basic_stringIcNS0_11char_traitsIcEENS0_9allocatorIcEEEEN2sf7Vector2IfEEi, symObjAddr: 0x0, symBinAddr: 0x100009D50, symSize: 0x1B0 }
  - { offsetInCU: 0x4965, offset: 0x2F49D, size: 0x8, addend: 0x0, symName: __ZN4PionC1ERKNSt3__112basic_stringIcNS0_11char_traitsIcEENS0_9allocatorIcEEEEN2sf7Vector2IfEEi, symObjAddr: 0x2A0, symBinAddr: 0x100009F00, symSize: 0x40 }
  - { offsetInCU: 0x49BB, offset: 0x2F4F3, size: 0x8, addend: 0x0, symName: __ZN4Pion12deplacerVersEN2sf7Vector2IfEE, symObjAddr: 0x2E0, symBinAddr: 0x100009F40, symSize: 0x50 }
  - { offsetInCU: 0x49F1, offset: 0x2F529, size: 0x8, addend: 0x0, symName: __ZN4Pion11setPositionEN2sf7Vector2IfEE, symObjAddr: 0x330, symBinAddr: 0x100009F90, symSize: 0x20 }
  - { offsetInCU: 0x4A25, offset: 0x2F55D, size: 0x8, addend: 0x0, symName: __ZN4Pion8afficherERN2sf12RenderWindowE, symObjAddr: 0x350, symBinAddr: 0x100009FB0, symSize: 0x40 }
  - { offsetInCU: 0xCDB7, offset: 0x3C34E, size: 0x8, addend: 0x0, symName: __ZNSt3__17advanceB7v160006IPimmvEEvRT_T0_, symObjAddr: 0xF260, symBinAddr: 0x100017B40, symSize: 0x50 }
  - { offsetInCU: 0xEBCC, offset: 0x3E163, size: 0x8, addend: 0x0, symName: __ZNSt3__17advanceB7v160006IPN2sf6SpriteEmmvEEvRT_T0_, symObjAddr: 0x18490, symBinAddr: 0x100020570, symSize: 0x50 }
  - { offsetInCU: 0x15162, offset: 0x446F9, size: 0x8, addend: 0x0, symName: __ZNSt3__13getB7v160006ILm0EJbNS_12basic_stringIcNS_11char_traitsIcEENS_9allocatorIcEEEES6_N2sf4FontEEEEONS_13tuple_elementIXT_ENS_5tupleIJDpT0_EEEE4typeEOSD_, symObjAddr: 0x14F0, symBinAddr: 0x10000B490, symSize: 0x20 }
  - { offsetInCU: 0x151B4, offset: 0x4474B, size: 0x8, addend: 0x0, symName: __ZNSt3__13getB7v160006ILm1EJbNS_12basic_stringIcNS_11char_traitsIcEENS_9allocatorIcEEEES6_N2sf4FontEEEEONS_13tuple_elementIXT_ENS_5tupleIJDpT0_EEEE4typeEOSD_, symObjAddr: 0x1510, symBinAddr: 0x10000B4B0, symSize: 0x20 }
  - { offsetInCU: 0x15206, offset: 0x4479D, size: 0x8, addend: 0x0, symName: __ZNSt3__13getB7v160006ILm2EJbNS_12basic_stringIcNS_11char_traitsIcEENS_9allocatorIcEEEES6_N2sf4FontEEEEONS_13tuple_elementIXT_ENS_5tupleIJDpT0_EEEE4typeEOSD_, symObjAddr: 0x1530, symBinAddr: 0x10000B4D0, symSize: 0x20 }
  - { offsetInCU: 0x15258, offset: 0x447EF, size: 0x8, addend: 0x0, symName: __ZNSt3__13getB7v160006ILm3EJbNS_12basic_stringIcNS_11char_traitsIcEENS_9allocatorIcEEEES6_N2sf4FontEEEEONS_13tuple_elementIXT_ENS_5tupleIJDpT0_EEEE4typeEOSD_, symObjAddr: 0x1550, symBinAddr: 0x10000B4F0, symSize: 0x20 }
  - { offsetInCU: 0x15405, offset: 0x4499C, size: 0x8, addend: 0x0, symName: __ZNSt3__1eqB7v160006IcNS_11char_traitsIcEENS_9allocatorIcEEEEbRKNS_12basic_stringIT_T0_T1_EEPKS6_, symObjAddr: 0x1B90, symBinAddr: 0x10000BAC0, symSize: 0x90 }
  - { offsetInCU: 0x1546C, offset: 0x44A03, size: 0x8, addend: 0x0, symName: __ZNSt3__13getB7v160006ILm0EJbNS_12basic_stringIcNS_11char_traitsIcEENS_9allocatorIcEEEEEEERNS_13tuple_elementIXT_ENS_5tupleIJDpT0_EEEE4typeERSB_, symObjAddr: 0x31E0, symBinAddr: 0x10000CBD0, symSize: 0x20 }
  - { offsetInCU: 0x154B4, offset: 0x44A4B, size: 0x8, addend: 0x0, symName: __ZNSt3__13getB7v160006ILm1EJbNS_12basic_stringIcNS_11char_traitsIcEENS_9allocatorIcEEEEEEERNS_13tuple_elementIXT_ENS_5tupleIJDpT0_EEEE4typeERSB_, symObjAddr: 0x3200, symBinAddr: 0x10000CBF0, symSize: 0x20 }
  - { offsetInCU: 0x154FC, offset: 0x44A93, size: 0x8, addend: 0x0, symName: __ZNSt3__110make_tupleB7v160006IJRbRNS_12basic_stringIcNS_11char_traitsIcEENS_9allocatorIcEEEES8_RN2sf4FontEEEENS_5tupleIJDpNS_18__unwrap_ref_decayIT_E4typeEEEEDpOSE_, symObjAddr: 0x3220, symBinAddr: 0x10000CC10, symSize: 0x50 }
  - { offsetInCU: 0x15595, offset: 0x44B2C, size: 0x8, addend: 0x0, symName: __ZNSt3__119__debug_db_insert_cB7v160006INS_6vectorIP4CaseNS_9allocatorIS3_EEEEEEvPT_, symObjAddr: 0x4030, symBinAddr: 0x10000D970, symSize: 0x10 }
  - { offsetInCU: 0x155C6, offset: 0x44B5D, size: 0x8, addend: 0x0, symName: __ZNSt3__119__debug_db_insert_cB7v160006INS_4listIP6JoueurNS_9allocatorIS3_EEEEEEvPT_, symObjAddr: 0x4180, symBinAddr: 0x10000DAC0, symSize: 0x10 }
  - { offsetInCU: 0x1562A, offset: 0x44BC1, size: 0x8, addend: 0x0, symName: __ZNSt3__112__to_addressB7v160006IP4CaseEEPT_S4_, symObjAddr: 0x45E0, symBinAddr: 0x10000DF20, symSize: 0x10 }
  - { offsetInCU: 0x1565F, offset: 0x44BF6, size: 0x8, addend: 0x0, symName: __ZNSt3__119__allocate_at_leastB7v160006INS_9allocatorIP4CaseEEEENS_19__allocation_resultINS_16allocator_traitsIT_E7pointerEEERS7_m, symObjAddr: 0x4DD0, symBinAddr: 0x10000E4E0, symSize: 0x40 }
  - { offsetInCU: 0x156A2, offset: 0x44C39, size: 0x8, addend: 0x0, symName: __ZNSt3__142__uninitialized_allocator_move_if_noexceptB7v160006INS_9allocatorIP4CaseEENS_16reverse_iteratorIPS3_EES7_S3_vEET1_RT_T0_SB_S8_, symObjAddr: 0x5100, symBinAddr: 0x10000E720, symSize: 0x70 }
  - { offsetInCU: 0x1571F, offset: 0x44CB6, size: 0x8, addend: 0x0, symName: __ZNSt3__14swapB7v160006IPP4CaseEENS_9enable_ifIXaasr21is_move_constructibleIT_EE5valuesr18is_move_assignableIS5_EE5valueEvE4typeERS5_S8_, symObjAddr: 0x51C0, symBinAddr: 0x10000E7E0, symSize: 0x40 }
  - { offsetInCU: 0x15771, offset: 0x44D08, size: 0x8, addend: 0x0, symName: __ZNSt3__125__debug_db_invalidate_allB7v160006INS_6vectorIP4CaseNS_9allocatorIS3_EEEEEEvPT_, symObjAddr: 0x52B0, symBinAddr: 0x10000E8D0, symSize: 0x10 }
  - { offsetInCU: 0x157A2, offset: 0x44D39, size: 0x8, addend: 0x0, symName: __ZNSt3__14moveB7v160006INS_16reverse_iteratorIPP4CaseEES5_EET0_T_S7_S6_, symObjAddr: 0x5300, symBinAddr: 0x10000E920, symSize: 0x80 }
  - { offsetInCU: 0x157FC, offset: 0x44D93, size: 0x8, addend: 0x0, symName: __ZNSt3__16__moveB7v160006INS_17_ClassicAlgPolicyENS_16reverse_iteratorIPP4CaseEES6_S6_EENS_4pairIT0_T2_EES8_T1_S9_, symObjAddr: 0x5380, symBinAddr: 0x10000E9A0, symSize: 0x90 }
  - { offsetInCU: 0x15868, offset: 0x44DFF, size: 0x8, addend: 0x0, symName: __ZNSt3__123__dispatch_copy_or_moveB7v160006INS_17_ClassicAlgPolicyENS_11__move_loopIS1_EENS_14__move_trivialENS_16reverse_iteratorIPP4CaseEES9_S9_EENS_4pairIT2_T4_EESB_T3_SC_, symObjAddr: 0x5410, symBinAddr: 0x10000EA30, symSize: 0x90 }
  - { offsetInCU: 0x158E6, offset: 0x44E7D, size: 0x8, addend: 0x0, symName: __ZNSt3__121__unwrap_and_dispatchB7v160006INS_10__overloadINS_11__move_loopINS_17_ClassicAlgPolicyEEENS_14__move_trivialEEENS_16reverse_iteratorIPP4CaseEESB_SB_Li0EEENS_4pairIT0_T2_EESD_T1_SE_, symObjAddr: 0x54A0, symBinAddr: 0x10000EAC0, symSize: 0x210 }
  - { offsetInCU: 0x15977, offset: 0x44F0E, size: 0x8, addend: 0x0, symName: __ZNSt3__114__unwrap_rangeB7v160006INS_16reverse_iteratorIPP4CaseEES5_EENS_4pairIT0_S7_EET_S9_, symObjAddr: 0x56B0, symBinAddr: 0x10000ECD0, symSize: 0x90 }
  - { offsetInCU: 0x15B31, offset: 0x450C8, size: 0x8, addend: 0x0, symName: __ZNSt3__113__unwrap_iterB7v160006INS_16reverse_iteratorIPP4CaseEENS_18__unwrap_iter_implIS5_Lb0EEELi0EEEDTclsrT0_8__unwrapclsr3stdE7declvalIT_EEEES9_, symObjAddr: 0x57E0, symBinAddr: 0x10000EE00, symSize: 0x40 }
  - { offsetInCU: 0x15B75, offset: 0x4510C, size: 0x8, addend: 0x0, symName: __ZNSt3__19make_pairB7v160006INS_16reverse_iteratorIPP4CaseEES5_EENS_4pairINS_18__unwrap_ref_decayIT_E4typeENS7_IT0_E4typeEEEOS8_OSB_, symObjAddr: 0x5820, symBinAddr: 0x10000EE40, symSize: 0x30 }
  - { offsetInCU: 0x15BC4, offset: 0x4515B, size: 0x8, addend: 0x0, symName: __ZNSt3__114__rewrap_rangeB7v160006INS_16reverse_iteratorIPP4CaseEES5_EET_S6_T0_, symObjAddr: 0x5850, symBinAddr: 0x10000EE70, symSize: 0x60 }
  - { offsetInCU: 0x15C10, offset: 0x451A7, size: 0x8, addend: 0x0, symName: __ZNSt3__113__rewrap_iterB7v160006INS_16reverse_iteratorIPP4CaseEES5_NS_18__unwrap_iter_implIS5_Lb0EEEEET_S8_T0_, symObjAddr: 0x58B0, symBinAddr: 0x10000EED0, symSize: 0x70 }
  - { offsetInCU: 0x15C65, offset: 0x451FC, size: 0x8, addend: 0x0, symName: __ZNSt3__1neB7v160006IPP4CaseS3_EEbRKNS_16reverse_iteratorIT_EERKNS4_IT0_EE, symObjAddr: 0x5920, symBinAddr: 0x10000EF40, symSize: 0x40 }
  - { offsetInCU: 0x15D96, offset: 0x4532D, size: 0x8, addend: 0x0, symName: __ZNSt3__1neB7v160006IPiEEbRKNS_11__wrap_iterIT_EES6_, symObjAddr: 0x7120, symBinAddr: 0x10000FD00, symSize: 0x30 }
  - { offsetInCU: 0x15DD9, offset: 0x45370, size: 0x8, addend: 0x0, symName: __ZNSt3__122__make_exception_guardB7v160006INS_6vectorIiNS_9allocatorIiEEE16__destroy_vectorEEENS_28__exception_guard_exceptionsIT_EES7_, symObjAddr: 0x9670, symBinAddr: 0x100012250, symSize: 0x40 }
  - { offsetInCU: 0x15E0E, offset: 0x453A5, size: 0x8, addend: 0x0, symName: __ZNSt3__119__debug_db_insert_cB7v160006INS_6vectorIiNS_9allocatorIiEEEEEEvPT_, symObjAddr: 0x96E0, symBinAddr: 0x1000122C0, symSize: 0x10 }
  - { offsetInCU: 0x15E3F, offset: 0x453D6, size: 0x8, addend: 0x0, symName: __ZNSt3__119__allocate_at_leastB7v160006INS_9allocatorIiEEEENS_19__allocation_resultINS_16allocator_traitsIT_E7pointerEEERS5_m, symObjAddr: 0x9A10, symBinAddr: 0x1000125F0, symSize: 0x40 }
  - { offsetInCU: 0x15E82, offset: 0x45419, size: 0x8, addend: 0x0, symName: __ZNSt3__112__to_addressB7v160006IiEEPT_S2_, symObjAddr: 0x9CA0, symBinAddr: 0x100012880, symSize: 0x10 }
  - { offsetInCU: 0x15EB7, offset: 0x4544E, size: 0x8, addend: 0x0, symName: __ZNSt3__130__uninitialized_allocator_copyB7v160006INS_9allocatorIiEEPiS3_S3_EET2_RT_T0_T1_S4_, symObjAddr: 0x9D30, symBinAddr: 0x100012910, symSize: 0x100 }
  - { offsetInCU: 0x15F55, offset: 0x454EC, size: 0x8, addend: 0x0, symName: __ZNSt3__122__make_exception_guardB7v160006INS_29_AllocatorDestroyRangeReverseINS_9allocatorIiEEPiEEEENS_28__exception_guard_exceptionsIT_EES7_, symObjAddr: 0x9E90, symBinAddr: 0x100012A70, symSize: 0x60 }
  - { offsetInCU: 0x15F8A, offset: 0x45521, size: 0x8, addend: 0x0, symName: __ZNSt3__119__allocator_destroyB7v160006INS_9allocatorIiEENS_16reverse_iteratorIPiEES5_EEvRT_T0_T1_, symObjAddr: 0xA110, symBinAddr: 0x100012CF0, symSize: 0x70 }
  - { offsetInCU: 0x15FED, offset: 0x45584, size: 0x8, addend: 0x0, symName: __ZNSt3__1neB7v160006IPiS1_EEbRKNS_16reverse_iteratorIT_EERKNS2_IT0_EE, symObjAddr: 0xA1B0, symBinAddr: 0x100012D90, symSize: 0x40 }
  - { offsetInCU: 0x16039, offset: 0x455D0, size: 0x8, addend: 0x0, symName: __ZNSt3__112__to_addressB7v160006INS_16reverse_iteratorIPiEEvEENS_5decayIDTclsr19__to_address_helperIT_EE6__callclsr3stdE7declvalIRKS5_EEEEE4typeES7_, symObjAddr: 0xA220, symBinAddr: 0x100012E00, symSize: 0x20 }
  - { offsetInCU: 0x16099, offset: 0x45630, size: 0x8, addend: 0x0, symName: __ZNSt3__118__debug_db_erase_cB7v160006INS_6vectorIiNS_9allocatorIiEEEEEEvPT_, symObjAddr: 0xA4F0, symBinAddr: 0x1000130D0, symSize: 0x10 }
  - { offsetInCU: 0x160CA, offset: 0x45661, size: 0x8, addend: 0x0, symName: __ZNSt3__1eqB7v160006IPiEEbRKNS_11__wrap_iterIT_EES6_, symObjAddr: 0xA690, symBinAddr: 0x100013270, symSize: 0x40 }
  - { offsetInCU: 0x1610D, offset: 0x456A4, size: 0x8, addend: 0x0, symName: __ZNSt3__13maxB7v160006IiEERKT_S3_S3_, symObjAddr: 0xA790, symBinAddr: 0x100013370, symSize: 0x30 }
  - { offsetInCU: 0x16150, offset: 0x456E7, size: 0x8, addend: 0x0, symName: __ZNSt3__13maxB7v160006IiNS_6__lessIiiEEEERKT_S5_S5_T0_, symObjAddr: 0xA7C0, symBinAddr: 0x1000133A0, symSize: 0x50 }
  - { offsetInCU: 0x161E5, offset: 0x4577C, size: 0x8, addend: 0x0, symName: __ZNSt3__122__make_exception_guardB7v160006INS_6vectorIN2sf7Vector2IfEENS_9allocatorIS4_EEE16__destroy_vectorEEENS_28__exception_guard_exceptionsIT_EESA_, symObjAddr: 0xA9B0, symBinAddr: 0x100013590, symSize: 0x40 }
  - { offsetInCU: 0x1621A, offset: 0x457B1, size: 0x8, addend: 0x0, symName: __ZNSt3__119__debug_db_insert_cB7v160006INS_6vectorIN2sf7Vector2IfEENS_9allocatorIS4_EEEEEEvPT_, symObjAddr: 0xAA20, symBinAddr: 0x100013600, symSize: 0x10 }
  - { offsetInCU: 0x1624B, offset: 0x457E2, size: 0x8, addend: 0x0, symName: __ZNSt3__119__allocate_at_leastB7v160006INS_9allocatorIN2sf7Vector2IfEEEEEENS_19__allocation_resultINS_16allocator_traitsIT_E7pointerEEERS8_m, symObjAddr: 0xAD50, symBinAddr: 0x100013930, symSize: 0x40 }
  - { offsetInCU: 0x1628E, offset: 0x45825, size: 0x8, addend: 0x0, symName: __ZNSt3__112__to_addressB7v160006IN2sf7Vector2IfEEEEPT_S5_, symObjAddr: 0xAFE0, symBinAddr: 0x100013BC0, symSize: 0x10 }
  - { offsetInCU: 0x162C3, offset: 0x4585A, size: 0x8, addend: 0x0, symName: __ZNSt3__130__uninitialized_allocator_copyB7v160006INS_9allocatorIN2sf7Vector2IfEEEEPS4_S6_S6_EET2_RT_T0_T1_S7_, symObjAddr: 0xB070, symBinAddr: 0x100013C50, symSize: 0x100 }
  - { offsetInCU: 0x16361, offset: 0x458F8, size: 0x8, addend: 0x0, symName: __ZNSt3__122__make_exception_guardB7v160006INS_29_AllocatorDestroyRangeReverseINS_9allocatorIN2sf7Vector2IfEEEEPS5_EEEENS_28__exception_guard_exceptionsIT_EESA_, symObjAddr: 0xB1D0, symBinAddr: 0x100013DB0, symSize: 0x60 }
  - { offsetInCU: 0x16396, offset: 0x4592D, size: 0x8, addend: 0x0, symName: __ZNSt3__119__allocator_destroyB7v160006INS_9allocatorIN2sf7Vector2IfEEEENS_16reverse_iteratorIPS4_EES8_EEvRT_T0_T1_, symObjAddr: 0xB450, symBinAddr: 0x100014030, symSize: 0x70 }
  - { offsetInCU: 0x163F9, offset: 0x45990, size: 0x8, addend: 0x0, symName: __ZNSt3__1neB7v160006IPN2sf7Vector2IfEES4_EEbRKNS_16reverse_iteratorIT_EERKNS5_IT0_EE, symObjAddr: 0xB4F0, symBinAddr: 0x1000140D0, symSize: 0x40 }
  - { offsetInCU: 0x16445, offset: 0x459DC, size: 0x8, addend: 0x0, symName: __ZNSt3__112__to_addressB7v160006INS_16reverse_iteratorIPN2sf7Vector2IfEEEEvEENS_5decayIDTclsr19__to_address_helperIT_EE6__callclsr3stdE7declvalIRKS8_EEEEE4typeESA_, symObjAddr: 0xB560, symBinAddr: 0x100014140, symSize: 0x20 }
  - { offsetInCU: 0x164A5, offset: 0x45A3C, size: 0x8, addend: 0x0, symName: __ZNSt3__118__debug_db_erase_cB7v160006INS_6vectorIN2sf7Vector2IfEENS_9allocatorIS4_EEEEEEvPT_, symObjAddr: 0xB830, symBinAddr: 0x100014410, symSize: 0x10 }
  - { offsetInCU: 0x164D6, offset: 0x45A6D, size: 0x8, addend: 0x0, symName: __ZNSt3__13minB7v160006IiEERKT_S3_S3_, symObjAddr: 0xD7C0, symBinAddr: 0x100016140, symSize: 0x30 }
  - { offsetInCU: 0x16519, offset: 0x45AB0, size: 0x8, addend: 0x0, symName: __ZNSt3__13minB7v160006IiNS_6__lessIiiEEEERKT_S5_S5_T0_, symObjAddr: 0xD7F0, symBinAddr: 0x100016170, symSize: 0x50 }
  - { offsetInCU: 0x16573, offset: 0x45B0A, size: 0x8, addend: 0x0, symName: __ZNSt3__142__uninitialized_allocator_move_if_noexceptB7v160006INS_9allocatorIiEENS_16reverse_iteratorIPiEES5_ivEET1_RT_T0_S9_S6_, symObjAddr: 0xE6B0, symBinAddr: 0x100016F90, symSize: 0x70 }
  - { offsetInCU: 0x165F0, offset: 0x45B87, size: 0x8, addend: 0x0, symName: __ZNSt3__14swapB7v160006IPiEENS_9enable_ifIXaasr21is_move_constructibleIT_EE5valuesr18is_move_assignableIS3_EE5valueEvE4typeERS3_S6_, symObjAddr: 0xE720, symBinAddr: 0x100017000, symSize: 0x40 }
  - { offsetInCU: 0x16642, offset: 0x45BD9, size: 0x8, addend: 0x0, symName: __ZNSt3__125__debug_db_invalidate_allB7v160006INS_6vectorIiNS_9allocatorIiEEEEEEvPT_, symObjAddr: 0xE760, symBinAddr: 0x100017040, symSize: 0x10 }
  - { offsetInCU: 0x16673, offset: 0x45C0A, size: 0x8, addend: 0x0, symName: __ZNSt3__14moveB7v160006INS_16reverse_iteratorIPiEES3_EET0_T_S5_S4_, symObjAddr: 0xE770, symBinAddr: 0x100017050, symSize: 0x80 }
  - { offsetInCU: 0x166CD, offset: 0x45C64, size: 0x8, addend: 0x0, symName: __ZNSt3__16__moveB7v160006INS_17_ClassicAlgPolicyENS_16reverse_iteratorIPiEES4_S4_EENS_4pairIT0_T2_EES6_T1_S7_, symObjAddr: 0xE7F0, symBinAddr: 0x1000170D0, symSize: 0x90 }
  - { offsetInCU: 0x16739, offset: 0x45CD0, size: 0x8, addend: 0x0, symName: __ZNSt3__123__dispatch_copy_or_moveB7v160006INS_17_ClassicAlgPolicyENS_11__move_loopIS1_EENS_14__move_trivialENS_16reverse_iteratorIPiEES7_S7_EENS_4pairIT2_T4_EES9_T3_SA_, symObjAddr: 0xE880, symBinAddr: 0x100017160, symSize: 0x90 }
  - { offsetInCU: 0x167B7, offset: 0x45D4E, size: 0x8, addend: 0x0, symName: __ZNSt3__121__unwrap_and_dispatchB7v160006INS_10__overloadINS_11__move_loopINS_17_ClassicAlgPolicyEEENS_14__move_trivialEEENS_16reverse_iteratorIPiEES9_S9_Li0EEENS_4pairIT0_T2_EESB_T1_SC_, symObjAddr: 0xE910, symBinAddr: 0x1000171F0, symSize: 0x210 }
  - { offsetInCU: 0x16848, offset: 0x45DDF, size: 0x8, addend: 0x0, symName: __ZNSt3__114__unwrap_rangeB7v160006INS_16reverse_iteratorIPiEES3_EENS_4pairIT0_S5_EET_S7_, symObjAddr: 0xEB20, symBinAddr: 0x100017400, symSize: 0x90 }
  - { offsetInCU: 0x16968, offset: 0x45EFF, size: 0x8, addend: 0x0, symName: __ZNSt3__113__unwrap_iterB7v160006INS_16reverse_iteratorIPiEENS_18__unwrap_iter_implIS3_Lb0EEELi0EEEDTclsrT0_8__unwrapclsr3stdE7declvalIT_EEEES7_, symObjAddr: 0xEC50, symBinAddr: 0x100017530, symSize: 0x40 }
  - { offsetInCU: 0x169AC, offset: 0x45F43, size: 0x8, addend: 0x0, symName: __ZNSt3__19make_pairB7v160006INS_16reverse_iteratorIPiEES3_EENS_4pairINS_18__unwrap_ref_decayIT_E4typeENS5_IT0_E4typeEEEOS6_OS9_, symObjAddr: 0xEC90, symBinAddr: 0x100017570, symSize: 0x30 }
  - { offsetInCU: 0x169FB, offset: 0x45F92, size: 0x8, addend: 0x0, symName: __ZNSt3__114__rewrap_rangeB7v160006INS_16reverse_iteratorIPiEES3_EET_S4_T0_, symObjAddr: 0xECC0, symBinAddr: 0x1000175A0, symSize: 0x60 }
  - { offsetInCU: 0x16A47, offset: 0x45FDE, size: 0x8, addend: 0x0, symName: __ZNSt3__113__rewrap_iterB7v160006INS_16reverse_iteratorIPiEES3_NS_18__unwrap_iter_implIS3_Lb0EEEEET_S6_T0_, symObjAddr: 0xED20, symBinAddr: 0x100017600, symSize: 0x70 }
  - { offsetInCU: 0x16B08, offset: 0x4609F, size: 0x8, addend: 0x0, symName: __ZNSt3__18distanceB7v160006IPiEENS_15iterator_traitsIT_E15difference_typeES3_S3_, symObjAddr: 0xF230, symBinAddr: 0x100017B10, symSize: 0x30 }
  - { offsetInCU: 0x16B4B, offset: 0x460E2, size: 0x8, addend: 0x0, symName: __ZNSt3__14copyB7v160006IPiS1_EET0_T_S3_S2_, symObjAddr: 0xF2B0, symBinAddr: 0x100017B90, symSize: 0x40 }
  - { offsetInCU: 0x16BA5, offset: 0x4613C, size: 0x8, addend: 0x0, symName: __ZNSt3__110__distanceB7v160006IPiEENS_15iterator_traitsIT_E15difference_typeES3_S3_NS_26random_access_iterator_tagE, symObjAddr: 0xF3D0, symBinAddr: 0x100017CB0, symSize: 0x20 }
  - { offsetInCU: 0x16BF3, offset: 0x4618A, size: 0x8, addend: 0x0, symName: __ZNSt3__121__convert_to_integralB7v160006Em, symObjAddr: 0xF3F0, symBinAddr: 0x100017CD0, symSize: 0x10 }
  - { offsetInCU: 0x16C1F, offset: 0x461B6, size: 0x8, addend: 0x0, symName: __ZNSt3__19__advanceB7v160006IPiEEvRT_NS_15iterator_traitsIS2_E15difference_typeENS_26random_access_iterator_tagE, symObjAddr: 0xF400, symBinAddr: 0x100017CE0, symSize: 0x20 }
  - { offsetInCU: 0x16C69, offset: 0x46200, size: 0x8, addend: 0x0, symName: __ZNSt3__16__copyB7v160006INS_17_ClassicAlgPolicyEPiS2_S2_EENS_4pairIT0_T2_EES4_T1_S5_, symObjAddr: 0xF420, symBinAddr: 0x100017D00, symSize: 0x40 }
  - { offsetInCU: 0x16CD5, offset: 0x4626C, size: 0x8, addend: 0x0, symName: __ZNSt3__123__dispatch_copy_or_moveB7v160006INS_17_ClassicAlgPolicyENS_11__copy_loopIS1_EENS_14__copy_trivialEPiS5_S5_EENS_4pairIT2_T4_EES7_T3_S8_, symObjAddr: 0xF460, symBinAddr: 0x100017D40, symSize: 0x40 }
  - { offsetInCU: 0x16D53, offset: 0x462EA, size: 0x8, addend: 0x0, symName: __ZNSt3__121__unwrap_and_dispatchB7v160006INS_10__overloadINS_11__copy_loopINS_17_ClassicAlgPolicyEEENS_14__copy_trivialEEEPiS7_S7_Li0EEENS_4pairIT0_T2_EES9_T1_SA_, symObjAddr: 0xF4A0, symBinAddr: 0x100017D80, symSize: 0xB0 }
  - { offsetInCU: 0x16DE4, offset: 0x4637B, size: 0x8, addend: 0x0, symName: __ZNSt3__114__unwrap_rangeB7v160006IPiS1_EENS_4pairIT0_S3_EET_S5_, symObjAddr: 0xF550, symBinAddr: 0x100017E30, symSize: 0x50 }
  - { offsetInCU: 0x16F79, offset: 0x46510, size: 0x8, addend: 0x0, symName: __ZNSt3__113__unwrap_iterB7v160006IPiNS_18__unwrap_iter_implIS1_Lb1EEELi0EEEDTclsrT0_8__unwrapclsr3stdE7declvalIT_EEEES5_, symObjAddr: 0xF5E0, symBinAddr: 0x100017EC0, symSize: 0x20 }
  - { offsetInCU: 0x16FBD, offset: 0x46554, size: 0x8, addend: 0x0, symName: __ZNSt3__19make_pairB7v160006IPiS1_EENS_4pairINS_18__unwrap_ref_decayIT_E4typeENS3_IT0_E4typeEEEOS4_OS7_, symObjAddr: 0xF600, symBinAddr: 0x100017EE0, symSize: 0x30 }
  - { offsetInCU: 0x1700C, offset: 0x465A3, size: 0x8, addend: 0x0, symName: __ZNSt3__114__rewrap_rangeB7v160006IPiS1_EET_S2_T0_, symObjAddr: 0xF630, symBinAddr: 0x100017F10, symSize: 0x30 }
  - { offsetInCU: 0x17058, offset: 0x465EF, size: 0x8, addend: 0x0, symName: __ZNSt3__113__rewrap_iterB7v160006IPiS1_NS_18__unwrap_iter_implIS1_Lb1EEEEET_S4_T0_, symObjAddr: 0xF660, symBinAddr: 0x100017F40, symSize: 0x40 }
  - { offsetInCU: 0x170AD, offset: 0x46644, size: 0x8, addend: 0x0, symName: __ZNSt3__119__copy_trivial_implB7v160006IiiEENS_4pairIPT_PT0_EES3_S3_S5_, symObjAddr: 0xF6A0, symBinAddr: 0x100017F80, symSize: 0x70 }
  - { offsetInCU: 0x17116, offset: 0x466AD, size: 0x8, addend: 0x0, symName: __ZNSt3__19make_pairB7v160006IRPiS1_EENS_4pairINS_18__unwrap_ref_decayIT_E4typeENS4_IT0_E4typeEEEOS5_OS8_, symObjAddr: 0xF710, symBinAddr: 0x100017FF0, symSize: 0x30 }
  - { offsetInCU: 0x171B8, offset: 0x4674F, size: 0x8, addend: 0x0, symName: __ZNSt3__1eqB7v160006INS_9allocatorIcEEEEbRKNS_12basic_stringIcNS_11char_traitsIcEET_EES9_, symObjAddr: 0x11910, symBinAddr: 0x10001A0E0, symSize: 0x110 }
  - { offsetInCU: 0x1722B, offset: 0x467C2, size: 0x8, addend: 0x0, symName: __ZNSt3__112__to_addressB7v160006IKcEEPT_S3_, symObjAddr: 0x11BA0, symBinAddr: 0x10001A2D0, symSize: 0x10 }
  - { offsetInCU: 0x17293, offset: 0x4682A, size: 0x8, addend: 0x0, symName: __ZNSt3__118__constexpr_memcmpB7v160006IcEEiPKT_S3_m, symObjAddr: 0x11C60, symBinAddr: 0x10001A390, symSize: 0x30 }
  - { offsetInCU: 0x172E4, offset: 0x4687B, size: 0x8, addend: 0x0, symName: __ZNSt3__118__debug_db_erase_cB7v160006INS_10__list_impIP6JoueurNS_9allocatorIS3_EEEEEEvPT_, symObjAddr: 0x158C0, symBinAddr: 0x10001DFD0, symSize: 0x10 }
  - { offsetInCU: 0x17315, offset: 0x468AC, size: 0x8, addend: 0x0, symName: __ZNSt3__125__debug_db_invalidate_allB7v160006INS_10__list_impIP6JoueurNS_9allocatorIS3_EEEEEEvPT_, symObjAddr: 0x15A10, symBinAddr: 0x10001E120, symSize: 0x10 }
  - { offsetInCU: 0x17346, offset: 0x468DD, size: 0x8, addend: 0x0, symName: __ZNSt3__118__debug_db_erase_cB7v160006INS_6vectorIP4CaseNS_9allocatorIS3_EEEEEEvPT_, symObjAddr: 0x15C40, symBinAddr: 0x10001E350, symSize: 0x10 }
  - { offsetInCU: 0x17377, offset: 0x4690E, size: 0x8, addend: 0x0, symName: __ZNSt3__115__debug_db_swapB7v160006INS_6vectorIN2sf6VertexENS_9allocatorIS3_EEEEEEvPT_S8_, symObjAddr: 0x16170, symBinAddr: 0x10001E850, symSize: 0x10 }
  - { offsetInCU: 0x173B6, offset: 0x4694D, size: 0x8, addend: 0x0, symName: __ZNSt3__125__debug_db_invalidate_allB7v160006INS_6vectorIN2sf6VertexENS_9allocatorIS3_EEEEEEvPT_, symObjAddr: 0x16350, symBinAddr: 0x10001E950, symSize: 0x10 }
  - { offsetInCU: 0x17405, offset: 0x4699C, size: 0x8, addend: 0x0, symName: __ZNSt3__19make_pairB7v160006IRfS1_EENS_4pairINS_18__unwrap_ref_decayIT_E4typeENS3_IT0_E4typeEEEOS4_OS7_, symObjAddr: 0x170C0, symBinAddr: 0x10001F1A0, symSize: 0x30 }
  - { offsetInCU: 0x17454, offset: 0x469EB, size: 0x8, addend: 0x0, symName: __ZNSt3__119__debug_db_insert_cB7v160006INS_6vectorIN2sf6SpriteENS_9allocatorIS3_EEEEEEvPT_, symObjAddr: 0x171E0, symBinAddr: 0x10001F2C0, symSize: 0x10 }
  - { offsetInCU: 0x17485, offset: 0x46A1C, size: 0x8, addend: 0x0, symName: __ZNSt3__18distanceB7v160006IPN2sf6SpriteEEENS_15iterator_traitsIT_E15difference_typeES5_S5_, symObjAddr: 0x183F0, symBinAddr: 0x1000204D0, symSize: 0x30 }
  - { offsetInCU: 0x174C8, offset: 0x46A5F, size: 0x8, addend: 0x0, symName: __ZNSt3__14copyB7v160006IPN2sf6SpriteES3_EET0_T_S5_S4_, symObjAddr: 0x184E0, symBinAddr: 0x1000205C0, symSize: 0x40 }
  - { offsetInCU: 0x17522, offset: 0x46AB9, size: 0x8, addend: 0x0, symName: __ZNSt3__125__debug_db_invalidate_allB7v160006INS_6vectorIN2sf6SpriteENS_9allocatorIS3_EEEEEEvPT_, symObjAddr: 0x187D0, symBinAddr: 0x1000208B0, symSize: 0x10 }
  - { offsetInCU: 0x17553, offset: 0x46AEA, size: 0x8, addend: 0x0, symName: __ZNSt3__110__distanceB7v160006IPN2sf6SpriteEEENS_15iterator_traitsIT_E15difference_typeES5_S5_NS_26random_access_iterator_tagE, symObjAddr: 0x187E0, symBinAddr: 0x1000208C0, symSize: 0x30 }
  - { offsetInCU: 0x175A1, offset: 0x46B38, size: 0x8, addend: 0x0, symName: __ZNSt3__19__advanceB7v160006IPN2sf6SpriteEEEvRT_NS_15iterator_traitsIS4_E15difference_typeENS_26random_access_iterator_tagE, symObjAddr: 0x18860, symBinAddr: 0x100020940, symSize: 0x30 }
  - { offsetInCU: 0x175EB, offset: 0x46B82, size: 0x8, addend: 0x0, symName: __ZNSt3__16__copyB7v160006INS_17_ClassicAlgPolicyEPN2sf6SpriteES4_S4_EENS_4pairIT0_T2_EES6_T1_S7_, symObjAddr: 0x18890, symBinAddr: 0x100020970, symSize: 0x40 }
  - { offsetInCU: 0x17657, offset: 0x46BEE, size: 0x8, addend: 0x0, symName: __ZNSt3__123__dispatch_copy_or_moveB7v160006INS_17_ClassicAlgPolicyENS_11__copy_loopIS1_EENS_14__copy_trivialEPN2sf6SpriteES7_S7_EENS_4pairIT2_T4_EES9_T3_SA_, symObjAddr: 0x188D0, symBinAddr: 0x1000209B0, symSize: 0x40 }
  - { offsetInCU: 0x176D5, offset: 0x46C6C, size: 0x8, addend: 0x0, symName: __ZNSt3__121__unwrap_and_dispatchB7v160006INS_10__overloadINS_11__copy_loopINS_17_ClassicAlgPolicyEEENS_14__copy_trivialEEEPN2sf6SpriteES9_S9_Li0EEENS_4pairIT0_T2_EESB_T1_SC_, symObjAddr: 0x18910, symBinAddr: 0x1000209F0, symSize: 0xB0 }
  - { offsetInCU: 0x17766, offset: 0x46CFD, size: 0x8, addend: 0x0, symName: __ZNSt3__114__unwrap_rangeB7v160006IPN2sf6SpriteES3_EENS_4pairIT0_S5_EET_S7_, symObjAddr: 0x189C0, symBinAddr: 0x100020AA0, symSize: 0x50 }
  - { offsetInCU: 0x178D8, offset: 0x46E6F, size: 0x8, addend: 0x0, symName: __ZNSt3__113__unwrap_iterB7v160006IPN2sf6SpriteENS_18__unwrap_iter_implIS3_Lb1EEELi0EEEDTclsrT0_8__unwrapclsr3stdE7declvalIT_EEEES7_, symObjAddr: 0x18A90, symBinAddr: 0x100020B70, symSize: 0x20 }
  - { offsetInCU: 0x1791C, offset: 0x46EB3, size: 0x8, addend: 0x0, symName: __ZNSt3__19make_pairB7v160006IPN2sf6SpriteES3_EENS_4pairINS_18__unwrap_ref_decayIT_E4typeENS5_IT0_E4typeEEEOS6_OS9_, symObjAddr: 0x18AB0, symBinAddr: 0x100020B90, symSize: 0x30 }
  - { offsetInCU: 0x1796B, offset: 0x46F02, size: 0x8, addend: 0x0, symName: __ZNSt3__114__rewrap_rangeB7v160006IPN2sf6SpriteES3_EET_S4_T0_, symObjAddr: 0x18AE0, symBinAddr: 0x100020BC0, symSize: 0x30 }
  - { offsetInCU: 0x179B7, offset: 0x46F4E, size: 0x8, addend: 0x0, symName: __ZNSt3__113__rewrap_iterB7v160006IPN2sf6SpriteES3_NS_18__unwrap_iter_implIS3_Lb1EEEEET_S6_T0_, symObjAddr: 0x18B10, symBinAddr: 0x100020BF0, symSize: 0x40 }
  - { offsetInCU: 0x17A5F, offset: 0x46FF6, size: 0x8, addend: 0x0, symName: __ZNSt3__112__to_addressB7v160006IN2sf6SpriteEEEPT_S4_, symObjAddr: 0x18BD0, symBinAddr: 0x100020CB0, symSize: 0x10 }
  - { offsetInCU: 0x17A94, offset: 0x4702B, size: 0x8, addend: 0x0, symName: __ZNSt3__130__uninitialized_allocator_copyB7v160006INS_9allocatorIN2sf6SpriteEEEPS3_S5_S5_EET2_RT_T0_T1_S6_, symObjAddr: 0x18CD0, symBinAddr: 0x100020DB0, symSize: 0x100 }
  - { offsetInCU: 0x17B32, offset: 0x470C9, size: 0x8, addend: 0x0, symName: __ZNSt3__122__make_exception_guardB7v160006INS_29_AllocatorDestroyRangeReverseINS_9allocatorIN2sf6SpriteEEEPS4_EEEENS_28__exception_guard_exceptionsIT_EES9_, symObjAddr: 0x18E50, symBinAddr: 0x100020F30, symSize: 0x60 }
  - { offsetInCU: 0x17B67, offset: 0x470FE, size: 0x8, addend: 0x0, symName: __ZNSt3__119__allocator_destroyB7v160006INS_9allocatorIN2sf6SpriteEEENS_16reverse_iteratorIPS3_EES7_EEvRT_T0_T1_, symObjAddr: 0x190E0, symBinAddr: 0x1000211C0, symSize: 0x70 }
  - { offsetInCU: 0x17BCA, offset: 0x47161, size: 0x8, addend: 0x0, symName: __ZNSt3__1neB7v160006IPN2sf6SpriteES3_EEbRKNS_16reverse_iteratorIT_EERKNS4_IT0_EE, symObjAddr: 0x19180, symBinAddr: 0x100021260, symSize: 0x40 }
  - { offsetInCU: 0x17C16, offset: 0x471AD, size: 0x8, addend: 0x0, symName: __ZNSt3__112__to_addressB7v160006INS_16reverse_iteratorIPN2sf6SpriteEEEvEENS_5decayIDTclsr19__to_address_helperIT_EE6__callclsr3stdE7declvalIRKS7_EEEEE4typeES9_, symObjAddr: 0x191F0, symBinAddr: 0x1000212D0, symSize: 0x20 }
  - { offsetInCU: 0x17C76, offset: 0x4720D, size: 0x8, addend: 0x0, symName: __ZNSt3__119__allocate_at_leastB7v160006INS_9allocatorIN2sf6SpriteEEEEENS_19__allocation_resultINS_16allocator_traitsIT_E7pointerEEERS7_m, symObjAddr: 0x196C0, symBinAddr: 0x1000217A0, symSize: 0x40 }
  - { offsetInCU: 0x17CB9, offset: 0x47250, size: 0x8, addend: 0x0, symName: __ZNSt3__1neB7v160006IPKP4CaseEEbRKNS_11__wrap_iterIT_EES9_, symObjAddr: 0x19990, symBinAddr: 0x100021A70, symSize: 0x30 }
  - { offsetInCU: 0x17CFC, offset: 0x47293, size: 0x8, addend: 0x0, symName: __ZNSt3__1eqB7v160006IPKP4CaseEEbRKNS_11__wrap_iterIT_EES9_, symObjAddr: 0x19A80, symBinAddr: 0x100021B60, symSize: 0x40 }
  - { offsetInCU: 0x17D3F, offset: 0x472D6, size: 0x8, addend: 0x0, symName: __ZNSt3__1plB7v160006IcNS_11char_traitsIcEENS_9allocatorIcEEEENS_12basic_stringIT_T0_T1_EEOS9_SA_, symObjAddr: 0x19B00, symBinAddr: 0x100021BE0, symSize: 0x50 }
  - { offsetInCU: 0x17D97, offset: 0x4732E, size: 0x8, addend: 0x0, symName: __ZNSt3__1neB7v160006IPN2sf6SpriteEEEbRKNS_11__wrap_iterIT_EES8_, symObjAddr: 0x1A4D0, symBinAddr: 0x1000225B0, symSize: 0x30 }
  - { offsetInCU: 0x17DDA, offset: 0x47371, size: 0x8, addend: 0x0, symName: __ZNSt3__122__make_exception_guardB7v160006INS_6vectorIN2sf6SpriteENS_9allocatorIS3_EEE16__destroy_vectorEEENS_28__exception_guard_exceptionsIT_EES9_, symObjAddr: 0x1A620, symBinAddr: 0x100022700, symSize: 0x40 }
  - { offsetInCU: 0x17E0F, offset: 0x473A6, size: 0x8, addend: 0x0, symName: __ZNSt3__118__debug_db_erase_cB7v160006INS_6vectorIN2sf6SpriteENS_9allocatorIS3_EEEEEEvPT_, symObjAddr: 0x1A9E0, symBinAddr: 0x100022AC0, symSize: 0x10 }
  - { offsetInCU: 0x17E40, offset: 0x473D7, size: 0x8, addend: 0x0, symName: __ZNSt3__1eqB7v160006IPN2sf6SpriteEEEbRKNS_11__wrap_iterIT_EES8_, symObjAddr: 0x1AA70, symBinAddr: 0x100022B50, symSize: 0x40 }
  - { offsetInCU: 0x19D1F, offset: 0x492B6, size: 0x8, addend: 0x0, symName: __ZNSt3__16vectorIP4CaseNS_9allocatorIS2_EEE26__swap_out_circular_bufferERNS_14__split_bufferIS2_RS4_EE, symObjAddr: 0x47C0, symBinAddr: 0x10000E100, symSize: 0x130 }
  - { offsetInCU: 0x19E4B, offset: 0x493E2, size: 0x8, addend: 0x0, symName: __ZNSt3__16vectorIiNS_9allocatorIiEEE26__swap_out_circular_bufferERNS_14__split_bufferIiRS2_EE, symObjAddr: 0xE360, symBinAddr: 0x100016C40, symSize: 0x130 }
  - { offsetInCU: 0x1BE5A, offset: 0x4B3F1, size: 0x8, addend: 0x0, symName: _main, symObjAddr: 0x0, symBinAddr: 0x100009FF0, symSize: 0x30 }
  - { offsetInCU: 0x1CD03, offset: 0x4C29A, size: 0x8, addend: 0x0, symName: __ZN3JeuC1Ev, symObjAddr: 0x30, symBinAddr: 0x10000A020, symSize: 0x20 }
  - { offsetInCU: 0x1CD2D, offset: 0x4C2C4, size: 0x8, addend: 0x0, symName: __ZN3Jeu9beginGameEv, symObjAddr: 0x50, symBinAddr: 0x10000A040, symSize: 0x1170 }
  - { offsetInCU: 0x1CF28, offset: 0x4C4BF, size: 0x8, addend: 0x0, symName: __ZN3JeuC2Ev, symObjAddr: 0x11C0, symBinAddr: 0x10000B1B0, symSize: 0x10 }
  - { offsetInCU: 0x1CF57, offset: 0x4C4EE, size: 0x8, addend: 0x0, symName: __ZN2sf15ContextSettingsC1Ejjjjjjb, symObjAddr: 0x1200, symBinAddr: 0x10000B1C0, symSize: 0x60 }
  - { offsetInCU: 0x1CFE3, offset: 0x4C57A, size: 0x8, addend: 0x0, symName: __ZN3Jeu9setupGameERN2sf12RenderWindowE, symObjAddr: 0x1280, symBinAddr: 0x10000B220, symSize: 0x270 }
  - { offsetInCU: 0x1D085, offset: 0x4C61C, size: 0x8, addend: 0x0, symName: __ZN7TableauC1Ev, symObjAddr: 0x1570, symBinAddr: 0x10000B510, symSize: 0x20 }
  - { offsetInCU: 0x1D0AF, offset: 0x4C646, size: 0x8, addend: 0x0, symName: __ZN6JoueurC1Ev, symObjAddr: 0x1590, symBinAddr: 0x10000B530, symSize: 0x20 }
  - { offsetInCU: 0x1D0D9, offset: 0x4C670, size: 0x8, addend: 0x0, symName: __ZN6Joueur6setBotEb, symObjAddr: 0x15B0, symBinAddr: 0x10000B550, symSize: 0x20 }
  - { offsetInCU: 0x1D144, offset: 0x4C6DB, size: 0x8, addend: 0x0, symName: __ZN9Affichage23createAndInitializeTextERKN2sf4FontEiRKNS0_5ColorERKNS0_7Vector2IfEERKNSt3__112basic_stringIcNSB_11char_traitsIcEENSB_9allocatorIcEEEE, symObjAddr: 0x15D0, symBinAddr: 0x10000B570, symSize: 0x160 }
  - { offsetInCU: 0x1D1C0, offset: 0x4C757, size: 0x8, addend: 0x0, symName: __ZNK6Joueur9getPointsEv, symObjAddr: 0x1760, symBinAddr: 0x10000B6D0, symSize: 0x20 }
  - { offsetInCU: 0x1D1EB, offset: 0x4C782, size: 0x8, addend: 0x0, symName: __ZN2sf4TextaSEOS0_, symObjAddr: 0x1780, symBinAddr: 0x10000B6F0, symSize: 0xF0 }
  - { offsetInCU: 0x1D21C, offset: 0x4C7B3, size: 0x8, addend: 0x0, symName: __ZN3Jeu24initializePionAndPlayersERKNSt3__112basic_stringIcNS0_11char_traitsIcEENS0_9allocatorIcEEEEP6JoueurSA_R4PionSC_R7Tableau, symObjAddr: 0x18B0, symBinAddr: 0x10000B7E0, symSize: 0x2E0 }
  - { offsetInCU: 0x1D296, offset: 0x4C82D, size: 0x8, addend: 0x0, symName: __ZN6Button16createRollButtonERKNSt3__112basic_stringIcNS0_11char_traitsIcEENS0_9allocatorIcEEEERKN2sf12RenderWindowE, symObjAddr: 0x1C20, symBinAddr: 0x10000BB50, symSize: 0x290 }
  - { offsetInCU: 0x1D388, offset: 0x4C91F, size: 0x8, addend: 0x0, symName: __ZNSt3__16vectorIN2sf6SpriteENS_9allocatorIS2_EEEC1B7v160006Ev, symObjAddr: 0x1EB0, symBinAddr: 0x10000BDE0, symSize: 0x20 }
  - { offsetInCU: 0x1D3B2, offset: 0x4C949, size: 0x8, addend: 0x0, symName: __ZN3Jeu13setupTimeTextERN2sf4TextERKNS0_4FontE, symObjAddr: 0x1ED0, symBinAddr: 0x10000BE00, symSize: 0x60 }
  - { offsetInCU: 0x1D3F4, offset: 0x4C98B, size: 0x8, addend: 0x0, symName: __ZN3Jeu11runGameLoopERN2sf12RenderWindowEP6JoueurS4_RNSt3__16vectorINS0_7Vector2IfEENS5_9allocatorIS8_EEEER3DesR6ButtonRNS0_6SpriteERNS6_ISH_NS9_ISH_EEEERNS0_4TextESN_SN_SI_SN_RbRNS0_5ClockERKNS0_4TimeERKNS5_12basic_stringIcNS5_11char_traitsIcEENS9_IcEEEER7Tableau, symObjAddr: 0x1F30, symBinAddr: 0x10000BE60, symSize: 0x790 }
  - { offsetInCU: 0x1D587, offset: 0x4CB1E, size: 0x8, addend: 0x0, symName: __ZN3Jeu7endGameERN2sf12RenderWindowEP6JoueurS4_R7Tableau, symObjAddr: 0x26C0, symBinAddr: 0x10000C5F0, symSize: 0x4C0 }
  - { offsetInCU: 0x1D635, offset: 0x4CBCC, size: 0x8, addend: 0x0, symName: __ZNSt3__16vectorIN2sf6SpriteENS_9allocatorIS2_EEED1B7v160006Ev, symObjAddr: 0x2B80, symBinAddr: 0x10000CAB0, symSize: 0x20 }
  - { offsetInCU: 0x1D65F, offset: 0x4CBF6, size: 0x8, addend: 0x0, symName: __ZN6ButtonD1Ev, symObjAddr: 0x2BA0, symBinAddr: 0x10000CAD0, symSize: 0x20 }
  - { offsetInCU: 0x1D68B, offset: 0x4CC22, size: 0x8, addend: 0x0, symName: __ZN4PionD1Ev, symObjAddr: 0x2BE0, symBinAddr: 0x10000CAF0, symSize: 0x20 }
  - { offsetInCU: 0x1D6B7, offset: 0x4CC4E, size: 0x8, addend: 0x0, symName: __ZNSt3__16vectorIN2sf7Vector2IfEENS_9allocatorIS3_EEED1B7v160006Ev, symObjAddr: 0x2C00, symBinAddr: 0x10000CB10, symSize: 0x20 }
  - { offsetInCU: 0x1D6E1, offset: 0x4CC78, size: 0x8, addend: 0x0, symName: __ZN7TableauD1Ev, symObjAddr: 0x2C20, symBinAddr: 0x10000CB30, symSize: 0x20 }
  - { offsetInCU: 0x1D70D, offset: 0x4CCA4, size: 0x8, addend: 0x0, symName: __ZNSt3__15tupleIJbNS_12basic_stringIcNS_11char_traitsIcEENS_9allocatorIcEEEES6_N2sf4FontEEED1Ev, symObjAddr: 0x2C40, symBinAddr: 0x10000CB50, symSize: 0x20 }
  - { offsetInCU: 0x1D73F, offset: 0x4CCD6, size: 0x8, addend: 0x0, symName: __ZN2sf15ContextSettingsC2Ejjjjjjb, symObjAddr: 0x2DF0, symBinAddr: 0x10000CB70, symSize: 0x60 }
  - { offsetInCU: 0x1D7CB, offset: 0x4CD62, size: 0x8, addend: 0x0, symName: __ZNSt3__15tupleIJbNS_12basic_stringIcNS_11char_traitsIcEENS_9allocatorIcEEEEEED1Ev, symObjAddr: 0x3290, symBinAddr: 0x10000CC60, symSize: 0x20 }
  - { offsetInCU: 0x1D7F8, offset: 0x4CD8F, size: 0x8, addend: 0x0, symName: __ZNSt3__112__tuple_leafILm0EbLb0EE3getB7v160006Ev, symObjAddr: 0x32B0, symBinAddr: 0x10000CC80, symSize: 0x10 }
  - { offsetInCU: 0x1D81E, offset: 0x4CDB5, size: 0x8, addend: 0x0, symName: __ZNSt3__112__tuple_leafILm1ENS_12basic_stringIcNS_11char_traitsIcEENS_9allocatorIcEEEELb0EE3getB7v160006Ev, symObjAddr: 0x32C0, symBinAddr: 0x10000CC90, symSize: 0x10 }
  - { offsetInCU: 0x1D844, offset: 0x4CDDB, size: 0x8, addend: 0x0, symName: __ZNSt3__15tupleIJbNS_12basic_stringIcNS_11char_traitsIcEENS_9allocatorIcEEEES6_N2sf4FontEEEC1B7v160006IJRbRS6_SC_RS8_ELi0EEEDpOT_, symObjAddr: 0x32D0, symBinAddr: 0x10000CCA0, symSize: 0x40 }
  - { offsetInCU: 0x1D8CA, offset: 0x4CE61, size: 0x8, addend: 0x0, symName: __ZNSt3__15tupleIJbNS_12basic_stringIcNS_11char_traitsIcEENS_9allocatorIcEEEES6_N2sf4FontEEEC2B7v160006IJRbRS6_SC_RS8_ELi0EEEDpOT_, symObjAddr: 0x3310, symBinAddr: 0x10000CCE0, symSize: 0x40 }
  - { offsetInCU: 0x1D950, offset: 0x4CEE7, size: 0x8, addend: 0x0, symName: __ZNSt3__112__tuple_implINS_15__tuple_indicesIJLm0ELm1ELm2ELm3EEEEJbNS_12basic_stringIcNS_11char_traitsIcEENS_9allocatorIcEEEES8_N2sf4FontEEEC1B7v160006IJLm0ELm1ELm2ELm3EEJbS8_S8_SA_EJEJEJRbRS8_SE_RSA_EEENS1_IJXspT_EEEENS_13__tuple_typesIJDpT0_EEENS1_IJXspT1_EEEENSH_IJDpT2_EEEDpOT3_, symObjAddr: 0x3350, symBinAddr: 0x10000CD20, symSize: 0x40 }
  - { offsetInCU: 0x1DA43, offset: 0x4CFDA, size: 0x8, addend: 0x0, symName: __ZNSt3__112__tuple_implINS_15__tuple_indicesIJLm0ELm1ELm2ELm3EEEEJbNS_12basic_stringIcNS_11char_traitsIcEENS_9allocatorIcEEEES8_N2sf4FontEEEC2B7v160006IJLm0ELm1ELm2ELm3EEJbS8_S8_SA_EJEJEJRbRS8_SE_RSA_EEENS1_IJXspT_EEEENS_13__tuple_typesIJDpT0_EEENS1_IJXspT1_EEEENSH_IJDpT2_EEEDpOT3_, symObjAddr: 0x3390, symBinAddr: 0x10000CD60, symSize: 0xB0 }
  - { offsetInCU: 0x1DB36, offset: 0x4D0CD, size: 0x8, addend: 0x0, symName: __ZNSt3__112__tuple_leafILm2ENS_12basic_stringIcNS_11char_traitsIcEENS_9allocatorIcEEEELb0EEC2B7v160006IRS6_vEEOT_, symObjAddr: 0x3490, symBinAddr: 0x10000CE10, symSize: 0x30 }
  - { offsetInCU: 0x1DB79, offset: 0x4D110, size: 0x8, addend: 0x0, symName: __ZNSt3__112__tuple_leafILm3EN2sf4FontELb0EEC2B7v160006IRS2_vEEOT_, symObjAddr: 0x34C0, symBinAddr: 0x10000CE40, symSize: 0x30 }
  - { offsetInCU: 0x1DBBC, offset: 0x4D153, size: 0x8, addend: 0x0, symName: __ZNSt3__112__tuple_leafILm2ENS_12basic_stringIcNS_11char_traitsIcEENS_9allocatorIcEEEELb0EED2Ev, symObjAddr: 0x34F0, symBinAddr: 0x10000CE70, symSize: 0x20 }
  - { offsetInCU: 0x1DBE9, offset: 0x4D180, size: 0x8, addend: 0x0, symName: __ZNSt3__112__tuple_leafILm1ENS_12basic_stringIcNS_11char_traitsIcEENS_9allocatorIcEEEELb0EED2Ev, symObjAddr: 0x3510, symBinAddr: 0x10000CE90, symSize: 0x20 }
  - { offsetInCU: 0x1DC16, offset: 0x4D1AD, size: 0x8, addend: 0x0, symName: __ZNSt3__15tupleIJbNS_12basic_stringIcNS_11char_traitsIcEENS_9allocatorIcEEEEEED2Ev, symObjAddr: 0x3570, symBinAddr: 0x10000CEB0, symSize: 0x20 }
  - { offsetInCU: 0x1DC43, offset: 0x4D1DA, size: 0x8, addend: 0x0, symName: __ZNSt3__112__tuple_implINS_15__tuple_indicesIJLm0ELm1EEEEJbNS_12basic_stringIcNS_11char_traitsIcEENS_9allocatorIcEEEEEED1Ev, symObjAddr: 0x3590, symBinAddr: 0x10000CED0, symSize: 0x20 }
  - { offsetInCU: 0x1DC70, offset: 0x4D207, size: 0x8, addend: 0x0, symName: __ZNSt3__112__tuple_implINS_15__tuple_indicesIJLm0ELm1EEEEJbNS_12basic_stringIcNS_11char_traitsIcEENS_9allocatorIcEEEEEED2Ev, symObjAddr: 0x35B0, symBinAddr: 0x10000CEF0, symSize: 0x20 }
  - { offsetInCU: 0x1DC9D, offset: 0x4D234, size: 0x8, addend: 0x0, symName: __ZNSt3__112__tuple_leafILm2ENS_12basic_stringIcNS_11char_traitsIcEENS_9allocatorIcEEEELb0EE3getB7v160006Ev, symObjAddr: 0x35D0, symBinAddr: 0x10000CF10, symSize: 0x10 }
  - { offsetInCU: 0x1DCC3, offset: 0x4D25A, size: 0x8, addend: 0x0, symName: __ZNSt3__112__tuple_leafILm3EN2sf4FontELb0EE3getB7v160006Ev, symObjAddr: 0x35E0, symBinAddr: 0x10000CF20, symSize: 0x10 }
  - { offsetInCU: 0x1DCE9, offset: 0x4D280, size: 0x8, addend: 0x0, symName: __ZN7TableauC2Ev, symObjAddr: 0x35F0, symBinAddr: 0x10000CF30, symSize: 0x4C0 }
  - { offsetInCU: 0x1DD13, offset: 0x4D2AA, size: 0x8, addend: 0x0, symName: __ZNSt3__16vectorIP4CaseNS_9allocatorIS2_EEEC1B7v160006Ev, symObjAddr: 0x3AB0, symBinAddr: 0x10000D3F0, symSize: 0x20 }
  - { offsetInCU: 0x1DD3D, offset: 0x4D2D4, size: 0x8, addend: 0x0, symName: __ZNSt3__14listIP6JoueurNS_9allocatorIS2_EEEC1B7v160006Ev, symObjAddr: 0x3AD0, symBinAddr: 0x10000D410, symSize: 0x20 }
  - { offsetInCU: 0x1DD67, offset: 0x4D2FE, size: 0x8, addend: 0x0, symName: __ZN7Tableau17ajouterCaseDepartEii, symObjAddr: 0x3AF0, symBinAddr: 0x10000D430, symSize: 0x80 }
  - { offsetInCU: 0x1DDA9, offset: 0x4D340, size: 0x8, addend: 0x0, symName: __ZN7Tableau15addPropertyCaseEiib, symObjAddr: 0x3B70, symBinAddr: 0x10000D4B0, symSize: 0x90 }
  - { offsetInCU: 0x1DDF9, offset: 0x4D390, size: 0x8, addend: 0x0, symName: __ZN7Tableau11addQuizCaseEi, symObjAddr: 0x3C00, symBinAddr: 0x10000D540, symSize: 0x80 }
  - { offsetInCU: 0x1DE2D, offset: 0x4D3C4, size: 0x8, addend: 0x0, symName: __ZN7Tableau10addTaxCaseEii, symObjAddr: 0x3C80, symBinAddr: 0x10000D5C0, symSize: 0x80 }
  - { offsetInCU: 0x1DE6F, offset: 0x4D406, size: 0x8, addend: 0x0, symName: __ZN7Tableau13addNormalCaseEi, symObjAddr: 0x3D00, symBinAddr: 0x10000D640, symSize: 0x80 }
  - { offsetInCU: 0x1DEA3, offset: 0x4D43A, size: 0x8, addend: 0x0, symName: __ZN7Tableau13addChanceCaseEi, symObjAddr: 0x3D80, symBinAddr: 0x10000D6C0, symSize: 0x80 }
  - { offsetInCU: 0x1DED7, offset: 0x4D46E, size: 0x8, addend: 0x0, symName: __ZN7Tableau14addServiceCaseEiRKNSt3__112basic_stringIcNS0_11char_traitsIcEENS0_9allocatorIcEEEE, symObjAddr: 0x3E00, symBinAddr: 0x10000D740, symSize: 0xE0 }
  - { offsetInCU: 0x1DF19, offset: 0x4D4B0, size: 0x8, addend: 0x0, symName: __ZN7Tableau16addCloseCityCaseEi, symObjAddr: 0x3EE0, symBinAddr: 0x10000D820, symSize: 0x80 }
  - { offsetInCU: 0x1DF4D, offset: 0x4D4E4, size: 0x8, addend: 0x0, symName: __ZNSt3__14listIP6JoueurNS_9allocatorIS2_EEED1Ev, symObjAddr: 0x3F60, symBinAddr: 0x10000D8A0, symSize: 0x20 }
  - { offsetInCU: 0x1DF7A, offset: 0x4D511, size: 0x8, addend: 0x0, symName: __ZNSt3__16vectorIP4CaseNS_9allocatorIS2_EEED1B7v160006Ev, symObjAddr: 0x3F80, symBinAddr: 0x10000D8C0, symSize: 0x20 }
  - { offsetInCU: 0x1DFA4, offset: 0x4D53B, size: 0x8, addend: 0x0, symName: __ZNSt3__16vectorIP4CaseNS_9allocatorIS2_EEEC2B7v160006Ev, symObjAddr: 0x3FA0, symBinAddr: 0x10000D8E0, symSize: 0x60 }
  - { offsetInCU: 0x1DFD3, offset: 0x4D56A, size: 0x8, addend: 0x0, symName: __ZNSt3__117__compressed_pairIPP4CaseNS_9allocatorIS2_EEEC1B7v160006IDnNS_18__default_init_tagEEEOT_OT0_, symObjAddr: 0x4000, symBinAddr: 0x10000D940, symSize: 0x30 }
  - { offsetInCU: 0x1E02B, offset: 0x4D5C2, size: 0x8, addend: 0x0, symName: __ZNSt3__117__compressed_pairIPP4CaseNS_9allocatorIS2_EEEC2B7v160006IDnNS_18__default_init_tagEEEOT_OT0_, symObjAddr: 0x4040, symBinAddr: 0x10000D980, symSize: 0x40 }
  - { offsetInCU: 0x1E083, offset: 0x4D61A, size: 0x8, addend: 0x0, symName: __ZNSt3__122__compressed_pair_elemIPP4CaseLi0ELb0EEC2B7v160006IDnvEEOT_, symObjAddr: 0x4080, symBinAddr: 0x10000D9C0, symSize: 0x20 }
  - { offsetInCU: 0x1E0C5, offset: 0x4D65C, size: 0x8, addend: 0x0, symName: __ZNSt3__122__compressed_pair_elemINS_9allocatorIP4CaseEELi1ELb1EEC2B7v160006ENS_18__default_init_tagE, symObjAddr: 0x40A0, symBinAddr: 0x10000D9E0, symSize: 0x20 }
  - { offsetInCU: 0x1E0FA, offset: 0x4D691, size: 0x8, addend: 0x0, symName: __ZNSt3__19allocatorIP4CaseEC2B7v160006Ev, symObjAddr: 0x40C0, symBinAddr: 0x10000DA00, symSize: 0x20 }
  - { offsetInCU: 0x1E124, offset: 0x4D6BB, size: 0x8, addend: 0x0, symName: __ZNSt3__116__non_trivial_ifILb1ENS_9allocatorIP4CaseEEEC2B7v160006Ev, symObjAddr: 0x40E0, symBinAddr: 0x10000DA20, symSize: 0x10 }
  - { offsetInCU: 0x1E14E, offset: 0x4D6E5, size: 0x8, addend: 0x0, symName: __ZNSt3__14listIP6JoueurNS_9allocatorIS2_EEEC2B7v160006Ev, symObjAddr: 0x40F0, symBinAddr: 0x10000DA30, symSize: 0x40 }
  - { offsetInCU: 0x1E178, offset: 0x4D70F, size: 0x8, addend: 0x0, symName: __ZNSt3__110__list_impIP6JoueurNS_9allocatorIS2_EEEC2Ev, symObjAddr: 0x4130, symBinAddr: 0x10000DA70, symSize: 0x50 }
  - { offsetInCU: 0x1E1A4, offset: 0x4D73B, size: 0x8, addend: 0x0, symName: __ZNSt3__116__list_node_baseIP6JoueurPvEC1B7v160006Ev, symObjAddr: 0x4190, symBinAddr: 0x10000DAD0, symSize: 0x20 }
  - { offsetInCU: 0x1E1D3, offset: 0x4D76A, size: 0x8, addend: 0x0, symName: __ZNSt3__117__compressed_pairImNS_9allocatorINS_11__list_nodeIP6JoueurPvEEEEEC1B7v160006IiNS_18__default_init_tagEEEOT_OT0_, symObjAddr: 0x41B0, symBinAddr: 0x10000DAF0, symSize: 0x30 }
  - { offsetInCU: 0x1E22B, offset: 0x4D7C2, size: 0x8, addend: 0x0, symName: __ZNSt3__116__list_node_baseIP6JoueurPvEC2B7v160006Ev, symObjAddr: 0x41E0, symBinAddr: 0x10000DB20, symSize: 0x50 }
  - { offsetInCU: 0x1E255, offset: 0x4D7EC, size: 0x8, addend: 0x0, symName: __ZNSt3__126__list_node_pointer_traitsIP6JoueurPvE26__unsafe_link_pointer_castB7v160006EPNS_16__list_node_baseIS2_S3_EE, symObjAddr: 0x4230, symBinAddr: 0x10000DB70, symSize: 0x10 }
  - { offsetInCU: 0x1E279, offset: 0x4D810, size: 0x8, addend: 0x0, symName: __ZNSt3__116__list_node_baseIP6JoueurPvE6__selfB7v160006Ev, symObjAddr: 0x4240, symBinAddr: 0x10000DB80, symSize: 0x20 }
  - { offsetInCU: 0x1E2A4, offset: 0x4D83B, size: 0x8, addend: 0x0, symName: __ZNSt3__114pointer_traitsIPNS_16__list_node_baseIP6JoueurPvEEE10pointer_toB7v160006ERS5_, symObjAddr: 0x4260, symBinAddr: 0x10000DBA0, symSize: 0x10 }
  - { offsetInCU: 0x1E2C7, offset: 0x4D85E, size: 0x8, addend: 0x0, symName: __ZNSt3__117__compressed_pairImNS_9allocatorINS_11__list_nodeIP6JoueurPvEEEEEC2B7v160006IiNS_18__default_init_tagEEEOT_OT0_, symObjAddr: 0x4270, symBinAddr: 0x10000DBB0, symSize: 0x40 }
  - { offsetInCU: 0x1E31F, offset: 0x4D8B6, size: 0x8, addend: 0x0, symName: __ZNSt3__122__compressed_pair_elemImLi0ELb0EEC2B7v160006IivEEOT_, symObjAddr: 0x42B0, symBinAddr: 0x10000DBF0, symSize: 0x20 }
  - { offsetInCU: 0x1E361, offset: 0x4D8F8, size: 0x8, addend: 0x0, symName: __ZNSt3__122__compressed_pair_elemINS_9allocatorINS_11__list_nodeIP6JoueurPvEEEELi1ELb1EEC2B7v160006ENS_18__default_init_tagE, symObjAddr: 0x42D0, symBinAddr: 0x10000DC10, symSize: 0x20 }
  - { offsetInCU: 0x1E396, offset: 0x4D92D, size: 0x8, addend: 0x0, symName: __ZNSt3__19allocatorINS_11__list_nodeIP6JoueurPvEEEC2B7v160006Ev, symObjAddr: 0x42F0, symBinAddr: 0x10000DC30, symSize: 0x20 }
  - { offsetInCU: 0x1E3C0, offset: 0x4D957, size: 0x8, addend: 0x0, symName: __ZNSt3__116__non_trivial_ifILb1ENS_9allocatorINS_11__list_nodeIP6JoueurPvEEEEEC2B7v160006Ev, symObjAddr: 0x4310, symBinAddr: 0x10000DC50, symSize: 0x10 }
  - { offsetInCU: 0x1E3EA, offset: 0x4D981, size: 0x8, addend: 0x0, symName: __ZNSt3__16vectorIP4CaseNS_9allocatorIS2_EEE9push_backB7v160006EOS2_, symObjAddr: 0x4320, symBinAddr: 0x10000DC60, symSize: 0x60 }
  - { offsetInCU: 0x1E4CA, offset: 0x4DA61, size: 0x8, addend: 0x0, symName: __ZN10CaseDepartC1Eii, symObjAddr: 0x4380, symBinAddr: 0x10000DCC0, symSize: 0x30 }
  - { offsetInCU: 0x1E510, offset: 0x4DAA7, size: 0x8, addend: 0x0, symName: __ZNSt3__16vectorIP4CaseNS_9allocatorIS2_EEE9__end_capB7v160006Ev, symObjAddr: 0x43B0, symBinAddr: 0x10000DCF0, symSize: 0x20 }
  - { offsetInCU: 0x1E53B, offset: 0x4DAD2, size: 0x8, addend: 0x0, symName: __ZNSt3__16vectorIP4CaseNS_9allocatorIS2_EEE22__construct_one_at_endB7v160006IJS2_EEEvDpOT_, symObjAddr: 0x43D0, symBinAddr: 0x10000DD10, symSize: 0x90 }
  - { offsetInCU: 0x1E58A, offset: 0x4DB21, size: 0x8, addend: 0x0, symName: __ZNSt3__16vectorIP4CaseNS_9allocatorIS2_EEE21__push_back_slow_pathIS2_EEvOT_, symObjAddr: 0x4460, symBinAddr: 0x10000DDA0, symSize: 0xD0 }
  - { offsetInCU: 0x1E5E8, offset: 0x4DB7F, size: 0x8, addend: 0x0, symName: __ZNSt3__117__compressed_pairIPP4CaseNS_9allocatorIS2_EEE5firstB7v160006Ev, symObjAddr: 0x4530, symBinAddr: 0x10000DE70, symSize: 0x20 }
  - { offsetInCU: 0x1E60E, offset: 0x4DBA5, size: 0x8, addend: 0x0, symName: __ZNSt3__122__compressed_pair_elemIPP4CaseLi0ELb0EE5__getB7v160006Ev, symObjAddr: 0x4550, symBinAddr: 0x10000DE90, symSize: 0x10 }
  - { offsetInCU: 0x1E64D, offset: 0x4DBE4, size: 0x8, addend: 0x0, symName: __ZNSt3__16vectorIP4CaseNS_9allocatorIS2_EEE21_ConstructTransactionC1B7v160006ERS5_m, symObjAddr: 0x4560, symBinAddr: 0x10000DEA0, symSize: 0x30 }
  - { offsetInCU: 0x1E695, offset: 0x4DC2C, size: 0x8, addend: 0x0, symName: __ZNSt3__116allocator_traitsINS_9allocatorIP4CaseEEE9constructB7v160006IS3_JS3_EvEEvRS4_PT_DpOT0_, symObjAddr: 0x4590, symBinAddr: 0x10000DED0, symSize: 0x30 }
  - { offsetInCU: 0x1E6EC, offset: 0x4DC83, size: 0x8, addend: 0x0, symName: __ZNSt3__16vectorIP4CaseNS_9allocatorIS2_EEE7__allocB7v160006Ev, symObjAddr: 0x45C0, symBinAddr: 0x10000DF00, symSize: 0x20 }
  - { offsetInCU: 0x1E712, offset: 0x4DCA9, size: 0x8, addend: 0x0, symName: __ZNSt3__16vectorIP4CaseNS_9allocatorIS2_EEE21_ConstructTransactionD1B7v160006Ev, symObjAddr: 0x45F0, symBinAddr: 0x10000DF30, symSize: 0x20 }
  - { offsetInCU: 0x1E73C, offset: 0x4DCD3, size: 0x8, addend: 0x0, symName: __ZNSt3__16vectorIP4CaseNS_9allocatorIS2_EEE21_ConstructTransactionC2B7v160006ERS5_m, symObjAddr: 0x4610, symBinAddr: 0x10000DF50, symSize: 0x40 }
  - { offsetInCU: 0x1E784, offset: 0x4DD1B, size: 0x8, addend: 0x0, symName: __ZNSt3__19allocatorIP4CaseE9constructB7v160006IS2_JS2_EEEvPT_DpOT0_, symObjAddr: 0x4650, symBinAddr: 0x10000DF90, symSize: 0x20 }
  - { offsetInCU: 0x1E7DA, offset: 0x4DD71, size: 0x8, addend: 0x0, symName: __ZNSt3__117__compressed_pairIPP4CaseNS_9allocatorIS2_EEE6secondB7v160006Ev, symObjAddr: 0x4670, symBinAddr: 0x10000DFB0, symSize: 0x20 }
  - { offsetInCU: 0x1E800, offset: 0x4DD97, size: 0x8, addend: 0x0, symName: __ZNSt3__122__compressed_pair_elemINS_9allocatorIP4CaseEELi1ELb1EE5__getB7v160006Ev, symObjAddr: 0x4690, symBinAddr: 0x10000DFD0, symSize: 0x10 }
  - { offsetInCU: 0x1E826, offset: 0x4DDBD, size: 0x8, addend: 0x0, symName: __ZNSt3__16vectorIP4CaseNS_9allocatorIS2_EEE21_ConstructTransactionD2B7v160006Ev, symObjAddr: 0x46A0, symBinAddr: 0x10000DFE0, symSize: 0x20 }
  - { offsetInCU: 0x1E850, offset: 0x4DDE7, size: 0x8, addend: 0x0, symName: __ZNKSt3__16vectorIP4CaseNS_9allocatorIS2_EEE11__recommendB7v160006Em, symObjAddr: 0x46C0, symBinAddr: 0x10000E000, symSize: 0xA0 }
  - { offsetInCU: 0x1E8A5, offset: 0x4DE3C, size: 0x8, addend: 0x0, symName: __ZNKSt3__16vectorIP4CaseNS_9allocatorIS2_EEE4sizeB7v160006Ev, symObjAddr: 0x4760, symBinAddr: 0x10000E0A0, symSize: 0x20 }
  - { offsetInCU: 0x1E8CB, offset: 0x4DE62, size: 0x8, addend: 0x0, symName: __ZNSt3__114__split_bufferIP4CaseRNS_9allocatorIS2_EEEC1EmmS5_, symObjAddr: 0x4780, symBinAddr: 0x10000E0C0, symSize: 0x40 }
  - { offsetInCU: 0x1E921, offset: 0x4DEB8, size: 0x8, addend: 0x0, symName: __ZNSt3__114__split_bufferIP4CaseRNS_9allocatorIS2_EEED1Ev, symObjAddr: 0x48F0, symBinAddr: 0x10000E230, symSize: 0x20 }
  - { offsetInCU: 0x1E94D, offset: 0x4DEE4, size: 0x8, addend: 0x0, symName: __ZNKSt3__16vectorIP4CaseNS_9allocatorIS2_EEE8max_sizeEv, symObjAddr: 0x4910, symBinAddr: 0x10000E250, symSize: 0x60 }
  - { offsetInCU: 0x1E975, offset: 0x4DF0C, size: 0x8, addend: 0x0, symName: __ZNKSt3__16vectorIP4CaseNS_9allocatorIS2_EEE20__throw_length_errorB7v160006Ev, symObjAddr: 0x4970, symBinAddr: 0x10000E2B0, symSize: 0x20 }
  - { offsetInCU: 0x1E99B, offset: 0x4DF32, size: 0x8, addend: 0x0, symName: __ZNKSt3__16vectorIP4CaseNS_9allocatorIS2_EEE8capacityB7v160006Ev, symObjAddr: 0x4990, symBinAddr: 0x10000E2D0, symSize: 0x30 }
  - { offsetInCU: 0x1E9CB, offset: 0x4DF62, size: 0x8, addend: 0x0, symName: __ZNSt3__116allocator_traitsINS_9allocatorIP4CaseEEE8max_sizeB7v160006IS4_vEEmRKS4_, symObjAddr: 0x4A20, symBinAddr: 0x10000E300, symSize: 0x20 }
  - { offsetInCU: 0x1E9F9, offset: 0x4DF90, size: 0x8, addend: 0x0, symName: __ZNKSt3__16vectorIP4CaseNS_9allocatorIS2_EEE7__allocB7v160006Ev, symObjAddr: 0x4A40, symBinAddr: 0x10000E320, symSize: 0x20 }
  - { offsetInCU: 0x1EA1F, offset: 0x4DFB6, size: 0x8, addend: 0x0, symName: __ZNKSt3__19allocatorIP4CaseE8max_sizeB7v160006Ev, symObjAddr: 0x4AF0, symBinAddr: 0x10000E340, symSize: 0x20 }
  - { offsetInCU: 0x1EA45, offset: 0x4DFDC, size: 0x8, addend: 0x0, symName: __ZNKSt3__117__compressed_pairIPP4CaseNS_9allocatorIS2_EEE6secondB7v160006Ev, symObjAddr: 0x4B10, symBinAddr: 0x10000E360, symSize: 0x20 }
  - { offsetInCU: 0x1EA6B, offset: 0x4E002, size: 0x8, addend: 0x0, symName: __ZNKSt3__122__compressed_pair_elemINS_9allocatorIP4CaseEELi1ELb1EE5__getB7v160006Ev, symObjAddr: 0x4B30, symBinAddr: 0x10000E380, symSize: 0x10 }
  - { offsetInCU: 0x1EA91, offset: 0x4E028, size: 0x8, addend: 0x0, symName: __ZNKSt3__16vectorIP4CaseNS_9allocatorIS2_EEE9__end_capB7v160006Ev, symObjAddr: 0x4C30, symBinAddr: 0x10000E390, symSize: 0x20 }
  - { offsetInCU: 0x1EAB7, offset: 0x4E04E, size: 0x8, addend: 0x0, symName: __ZNKSt3__117__compressed_pairIPP4CaseNS_9allocatorIS2_EEE5firstB7v160006Ev, symObjAddr: 0x4C50, symBinAddr: 0x10000E3B0, symSize: 0x20 }
  - { offsetInCU: 0x1EADD, offset: 0x4E074, size: 0x8, addend: 0x0, symName: __ZNKSt3__122__compressed_pair_elemIPP4CaseLi0ELb0EE5__getB7v160006Ev, symObjAddr: 0x4C70, symBinAddr: 0x10000E3D0, symSize: 0x10 }
  - { offsetInCU: 0x1EB03, offset: 0x4E09A, size: 0x8, addend: 0x0, symName: __ZNSt3__114__split_bufferIP4CaseRNS_9allocatorIS2_EEEC2EmmS5_, symObjAddr: 0x4CD0, symBinAddr: 0x10000E3E0, symSize: 0xD0 }
  - { offsetInCU: 0x1EB76, offset: 0x4E10D, size: 0x8, addend: 0x0, symName: __ZNSt3__117__compressed_pairIPP4CaseRNS_9allocatorIS2_EEEC1B7v160006IDnS6_EEOT_OT0_, symObjAddr: 0x4DA0, symBinAddr: 0x10000E4B0, symSize: 0x30 }
  - { offsetInCU: 0x1EBCE, offset: 0x4E165, size: 0x8, addend: 0x0, symName: __ZNSt3__114__split_bufferIP4CaseRNS_9allocatorIS2_EEE7__allocB7v160006Ev, symObjAddr: 0x4E10, symBinAddr: 0x10000E520, symSize: 0x20 }
  - { offsetInCU: 0x1EBF4, offset: 0x4E18B, size: 0x8, addend: 0x0, symName: __ZNSt3__114__split_bufferIP4CaseRNS_9allocatorIS2_EEE9__end_capB7v160006Ev, symObjAddr: 0x4E30, symBinAddr: 0x10000E540, symSize: 0x20 }
  - { offsetInCU: 0x1EC1A, offset: 0x4E1B1, size: 0x8, addend: 0x0, symName: __ZNSt3__117__compressed_pairIPP4CaseRNS_9allocatorIS2_EEEC2B7v160006IDnS6_EEOT_OT0_, symObjAddr: 0x4E50, symBinAddr: 0x10000E560, symSize: 0x40 }
  - { offsetInCU: 0x1EC72, offset: 0x4E209, size: 0x8, addend: 0x0, symName: __ZNSt3__122__compressed_pair_elemIRNS_9allocatorIP4CaseEELi1ELb0EEC2B7v160006IS5_vEEOT_, symObjAddr: 0x4E90, symBinAddr: 0x10000E5A0, symSize: 0x20 }
  - { offsetInCU: 0x1ECB4, offset: 0x4E24B, size: 0x8, addend: 0x0, symName: __ZNSt3__19allocatorIP4CaseE8allocateB7v160006Em, symObjAddr: 0x4EB0, symBinAddr: 0x10000E5C0, symSize: 0x50 }
  - { offsetInCU: 0x1ECE8, offset: 0x4E27F, size: 0x8, addend: 0x0, symName: __ZNSt3__117__compressed_pairIPP4CaseRNS_9allocatorIS2_EEE6secondB7v160006Ev, symObjAddr: 0x4FF0, symBinAddr: 0x10000E610, symSize: 0x20 }
  - { offsetInCU: 0x1ED0E, offset: 0x4E2A5, size: 0x8, addend: 0x0, symName: __ZNSt3__122__compressed_pair_elemIRNS_9allocatorIP4CaseEELi1ELb0EE5__getB7v160006Ev, symObjAddr: 0x5010, symBinAddr: 0x10000E630, symSize: 0x20 }
  - { offsetInCU: 0x1ED34, offset: 0x4E2CB, size: 0x8, addend: 0x0, symName: __ZNSt3__117__compressed_pairIPP4CaseRNS_9allocatorIS2_EEE5firstB7v160006Ev, symObjAddr: 0x5030, symBinAddr: 0x10000E650, symSize: 0x20 }
  - { offsetInCU: 0x1ED5A, offset: 0x4E2F1, size: 0x8, addend: 0x0, symName: __ZNKSt3__16vectorIP4CaseNS_9allocatorIS2_EEE17__annotate_deleteB7v160006Ev, symObjAddr: 0x5050, symBinAddr: 0x10000E670, symSize: 0xB0 }
  - { offsetInCU: 0x1ED80, offset: 0x4E317, size: 0x8, addend: 0x0, symName: __ZNSt3__116reverse_iteratorIPP4CaseEC1B7v160006ES3_, symObjAddr: 0x5170, symBinAddr: 0x10000E790, symSize: 0x30 }
  - { offsetInCU: 0x1EDB8, offset: 0x4E34F, size: 0x8, addend: 0x0, symName: __ZNKSt3__116reverse_iteratorIPP4CaseE4baseB7v160006Ev, symObjAddr: 0x51A0, symBinAddr: 0x10000E7C0, symSize: 0x20 }
  - { offsetInCU: 0x1EDDE, offset: 0x4E375, size: 0x8, addend: 0x0, symName: __ZNKSt3__16vectorIP4CaseNS_9allocatorIS2_EEE14__annotate_newB7v160006Em, symObjAddr: 0x5200, symBinAddr: 0x10000E820, symSize: 0xB0 }
  - { offsetInCU: 0x1EE13, offset: 0x4E3AA, size: 0x8, addend: 0x0, symName: __ZNKSt3__16vectorIP4CaseNS_9allocatorIS2_EEE31__annotate_contiguous_containerB7v160006EPKvS7_S7_S7_, symObjAddr: 0x52C0, symBinAddr: 0x10000E8E0, symSize: 0x20 }
  - { offsetInCU: 0x1EE69, offset: 0x4E400, size: 0x8, addend: 0x0, symName: __ZNKSt3__16vectorIP4CaseNS_9allocatorIS2_EEE4dataB7v160006Ev, symObjAddr: 0x52E0, symBinAddr: 0x10000E900, symSize: 0x20 }
  - { offsetInCU: 0x1EEB2, offset: 0x4E449, size: 0x8, addend: 0x0, symName: __ZNKSt3__111__move_loopINS_17_ClassicAlgPolicyEEclB7v160006INS_16reverse_iteratorIPP4CaseEES8_S8_EENS_4pairIT_T1_EESA_T0_SB_, symObjAddr: 0x5740, symBinAddr: 0x10000ED60, symSize: 0xA0 }
  - { offsetInCU: 0x1EF1D, offset: 0x4E4B4, size: 0x8, addend: 0x0, symName: __ZNSt3__18_IterOpsINS_17_ClassicAlgPolicyEE11__iter_moveB7v160006IRNS_16reverse_iteratorIPP4CaseEEEENS_9enable_ifIXsr12is_referenceIDTdeclsr3stdE7declvalIRT_EEEEE5valueEDTclsr3stdE4movedeclsr3stdE7declvalISC_EEEEE4typeEOSB_, symObjAddr: 0x5960, symBinAddr: 0x10000EF80, symSize: 0x20 }
  - { offsetInCU: 0x1EF49, offset: 0x4E4E0, size: 0x8, addend: 0x0, symName: __ZNKSt3__116reverse_iteratorIPP4CaseEdeB7v160006Ev, symObjAddr: 0x5980, symBinAddr: 0x10000EFA0, symSize: 0x30 }
  - { offsetInCU: 0x1EF7E, offset: 0x4E515, size: 0x8, addend: 0x0, symName: __ZNSt3__116reverse_iteratorIPP4CaseEppB7v160006Ev, symObjAddr: 0x59B0, symBinAddr: 0x10000EFD0, symSize: 0x20 }
  - { offsetInCU: 0x1EFA4, offset: 0x4E53B, size: 0x8, addend: 0x0, symName: __ZNSt3__18_IterOpsINS_17_ClassicAlgPolicyEE25__validate_iter_referenceB7v160006IRNS_16reverse_iteratorIPP4CaseEEEEvv, symObjAddr: 0x59D0, symBinAddr: 0x10000EFF0, symSize: 0x10 }
  - { offsetInCU: 0x1EFC2, offset: 0x4E559, size: 0x8, addend: 0x0, symName: __ZNSt3__118__unwrap_iter_implINS_16reverse_iteratorIPP4CaseEELb0EE8__unwrapB7v160006ES5_, symObjAddr: 0x59E0, symBinAddr: 0x10000F000, symSize: 0x20 }
  - { offsetInCU: 0x1EFEA, offset: 0x4E581, size: 0x8, addend: 0x0, symName: __ZNSt3__14pairINS_16reverse_iteratorIPP4CaseEES5_EC1B7v160006IS5_S5_LPv0EEEOT_OT0_, symObjAddr: 0x5A00, symBinAddr: 0x10000F020, symSize: 0x30 }
  - { offsetInCU: 0x1F048, offset: 0x4E5DF, size: 0x8, addend: 0x0, symName: __ZNSt3__14pairINS_16reverse_iteratorIPP4CaseEES5_EC2B7v160006IS5_S5_LPv0EEEOT_OT0_, symObjAddr: 0x5A30, symBinAddr: 0x10000F050, symSize: 0x40 }
  - { offsetInCU: 0x1F0A6, offset: 0x4E63D, size: 0x8, addend: 0x0, symName: __ZNSt3__118__unwrap_iter_implINS_16reverse_iteratorIPP4CaseEELb0EE8__rewrapB7v160006ES5_S5_, symObjAddr: 0x5A70, symBinAddr: 0x10000F090, symSize: 0x30 }
  - { offsetInCU: 0x1F0D4, offset: 0x4E66B, size: 0x8, addend: 0x0, symName: __ZNSt3__116reverse_iteratorIPP4CaseEC2B7v160006ES3_, symObjAddr: 0x5AA0, symBinAddr: 0x10000F0C0, symSize: 0x30 }
  - { offsetInCU: 0x1F10C, offset: 0x4E6A3, size: 0x8, addend: 0x0, symName: __ZNSt3__114__split_bufferIP4CaseRNS_9allocatorIS2_EEED2Ev, symObjAddr: 0x5AD0, symBinAddr: 0x10000F0F0, symSize: 0x70 }
  - { offsetInCU: 0x1F138, offset: 0x4E6CF, size: 0x8, addend: 0x0, symName: __ZNSt3__114__split_bufferIP4CaseRNS_9allocatorIS2_EEE5clearB7v160006Ev, symObjAddr: 0x5B40, symBinAddr: 0x10000F160, symSize: 0x20 }
  - { offsetInCU: 0x1F15E, offset: 0x4E6F5, size: 0x8, addend: 0x0, symName: __ZNSt3__116allocator_traitsINS_9allocatorIP4CaseEEE10deallocateB7v160006ERS4_PS3_m, symObjAddr: 0x5B60, symBinAddr: 0x10000F180, symSize: 0x30 }
  - { offsetInCU: 0x1F1A0, offset: 0x4E737, size: 0x8, addend: 0x0, symName: __ZNKSt3__114__split_bufferIP4CaseRNS_9allocatorIS2_EEE8capacityB7v160006Ev, symObjAddr: 0x5B90, symBinAddr: 0x10000F1B0, symSize: 0x30 }
  - { offsetInCU: 0x1F1C6, offset: 0x4E75D, size: 0x8, addend: 0x0, symName: __ZNSt3__114__split_bufferIP4CaseRNS_9allocatorIS2_EEE17__destruct_at_endB7v160006EPS2_, symObjAddr: 0x5BC0, symBinAddr: 0x10000F1E0, symSize: 0x30 }
  - { offsetInCU: 0x1F1FA, offset: 0x4E791, size: 0x8, addend: 0x0, symName: __ZNSt3__114__split_bufferIP4CaseRNS_9allocatorIS2_EEE17__destruct_at_endB7v160006EPS2_NS_17integral_constantIbLb0EEE, symObjAddr: 0x5BF0, symBinAddr: 0x10000F210, symSize: 0x80 }
  - { offsetInCU: 0x1F23B, offset: 0x4E7D2, size: 0x8, addend: 0x0, symName: __ZNSt3__116allocator_traitsINS_9allocatorIP4CaseEEE7destroyB7v160006IS3_vEEvRS4_PT_, symObjAddr: 0x5C70, symBinAddr: 0x10000F290, symSize: 0x30 }
  - { offsetInCU: 0x1F278, offset: 0x4E80F, size: 0x8, addend: 0x0, symName: __ZNSt3__19allocatorIP4CaseE7destroyB7v160006EPS2_, symObjAddr: 0x5CA0, symBinAddr: 0x10000F2C0, symSize: 0x10 }
  - { offsetInCU: 0x1F2AC, offset: 0x4E843, size: 0x8, addend: 0x0, symName: __ZNSt3__19allocatorIP4CaseE10deallocateB7v160006EPS2_m, symObjAddr: 0x5CB0, symBinAddr: 0x10000F2D0, symSize: 0x40 }
  - { offsetInCU: 0x1F2EE, offset: 0x4E885, size: 0x8, addend: 0x0, symName: __ZNKSt3__114__split_bufferIP4CaseRNS_9allocatorIS2_EEE9__end_capB7v160006Ev, symObjAddr: 0x5CF0, symBinAddr: 0x10000F310, symSize: 0x20 }
  - { offsetInCU: 0x1F314, offset: 0x4E8AB, size: 0x8, addend: 0x0, symName: __ZNKSt3__117__compressed_pairIPP4CaseRNS_9allocatorIS2_EEE5firstB7v160006Ev, symObjAddr: 0x5D10, symBinAddr: 0x10000F330, symSize: 0x20 }
  - { offsetInCU: 0x1F33A, offset: 0x4E8D1, size: 0x8, addend: 0x0, symName: __ZN10CaseDepartC2Eii, symObjAddr: 0x5D30, symBinAddr: 0x10000F350, symSize: 0x40 }
  - { offsetInCU: 0x1F380, offset: 0x4E917, size: 0x8, addend: 0x0, symName: __ZN4CaseC2Ei, symObjAddr: 0x5D70, symBinAddr: 0x10000F390, symSize: 0x30 }
  - { offsetInCU: 0x1F3B8, offset: 0x4E94F, size: 0x8, addend: 0x0, symName: __ZNK10CaseDepart6actionER6JoueurRN2sf12RenderWindowENSt3__16vectorINS2_7Vector2IfEENS5_9allocatorIS8_EEEE, symObjAddr: 0x5DA0, symBinAddr: 0x10000F3C0, symSize: 0xD0 }
  - { offsetInCU: 0x1F409, offset: 0x4E9A0, size: 0x8, addend: 0x0, symName: __ZNK4Case7getCoutEv, symObjAddr: 0x5E70, symBinAddr: 0x10000F490, symSize: 0x10 }
  - { offsetInCU: 0x1F42F, offset: 0x4E9C6, size: 0x8, addend: 0x0, symName: __ZNK4Case9actionbotER6JoueurRN2sf12RenderWindowENSt3__16vectorINS2_7Vector2IfEENS5_9allocatorIS8_EEEEii, symObjAddr: 0x5E80, symBinAddr: 0x10000F4A0, symSize: 0x20 }
  - { offsetInCU: 0x1F49C, offset: 0x4EA33, size: 0x8, addend: 0x0, symName: __ZN10CaseDepartD1Ev, symObjAddr: 0x5EA0, symBinAddr: 0x10000F4C0, symSize: 0x20 }
  - { offsetInCU: 0x1F4C8, offset: 0x4EA5F, size: 0x8, addend: 0x0, symName: __ZN10CaseDepartD0Ev, symObjAddr: 0x5EC0, symBinAddr: 0x10000F4E0, symSize: 0x30 }
  - { offsetInCU: 0x1F4F4, offset: 0x4EA8B, size: 0x8, addend: 0x0, symName: __ZN4CaseD1Ev, symObjAddr: 0x5EF0, symBinAddr: 0x10000F510, symSize: 0x10 }
  - { offsetInCU: 0x1F51E, offset: 0x4EAB5, size: 0x8, addend: 0x0, symName: __ZN4CaseD0Ev, symObjAddr: 0x5F00, symBinAddr: 0x10000F520, symSize: 0x10 }
  - { offsetInCU: 0x1F548, offset: 0x4EADF, size: 0x8, addend: 0x0, symName: __ZNK4Case11getPositionEv, symObjAddr: 0x5F50, symBinAddr: 0x10000F530, symSize: 0x20 }
  - { offsetInCU: 0x1F56E, offset: 0x4EB05, size: 0x8, addend: 0x0, symName: __ZNK10CaseDepart14getNbMedaillesEv, symObjAddr: 0x5F70, symBinAddr: 0x10000F550, symSize: 0x20 }
  - { offsetInCU: 0x1F594, offset: 0x4EB2B, size: 0x8, addend: 0x0, symName: __ZN6Joueur9setPointsEi, symObjAddr: 0x6000, symBinAddr: 0x10000F570, symSize: 0x20 }
  - { offsetInCU: 0x1F5C8, offset: 0x4EB5F, size: 0x8, addend: 0x0, symName: __ZN10CaseDepartD2Ev, symObjAddr: 0x69B0, symBinAddr: 0x10000F590, symSize: 0x20 }
  - { offsetInCU: 0x1F5F4, offset: 0x4EB8B, size: 0x8, addend: 0x0, symName: __ZN4CaseD2Ev, symObjAddr: 0x69D0, symBinAddr: 0x10000F5B0, symSize: 0x10 }
  - { offsetInCU: 0x1FA98, offset: 0x4F02F, size: 0x8, addend: 0x0, symName: __ZN13CaseProprieteC1Eiib, symObjAddr: 0x69E0, symBinAddr: 0x10000F5C0, symSize: 0x40 }
  - { offsetInCU: 0x1FAEC, offset: 0x4F083, size: 0x8, addend: 0x0, symName: __ZN13CaseProprieteC2Eiib, symObjAddr: 0x6A20, symBinAddr: 0x10000F600, symSize: 0x70 }
  - { offsetInCU: 0x1FB40, offset: 0x4F0D7, size: 0x8, addend: 0x0, symName: __ZN11CasePayanteC2Eiib, symObjAddr: 0x6A90, symBinAddr: 0x10000F670, symSize: 0x50 }
  - { offsetInCU: 0x1FB94, offset: 0x4F12B, size: 0x8, addend: 0x0, symName: __ZNK13CasePropriete6actionER6JoueurRN2sf12RenderWindowENSt3__16vectorINS2_7Vector2IfEENS5_9allocatorIS8_EEEE, symObjAddr: 0x6AE0, symBinAddr: 0x10000F6C0, symSize: 0x4E0 }
  - { offsetInCU: 0x1FC6A, offset: 0x4F201, size: 0x8, addend: 0x0, symName: __ZNK13CasePropriete7getCoutEv, symObjAddr: 0x6FC0, symBinAddr: 0x10000FBA0, symSize: 0x20 }
  - { offsetInCU: 0x1FC90, offset: 0x4F227, size: 0x8, addend: 0x0, symName: __ZN13CaseProprieteD1Ev, symObjAddr: 0x6FE0, symBinAddr: 0x10000FBC0, symSize: 0x20 }
  - { offsetInCU: 0x1FCBC, offset: 0x4F253, size: 0x8, addend: 0x0, symName: __ZN13CaseProprieteD0Ev, symObjAddr: 0x7000, symBinAddr: 0x10000FBE0, symSize: 0x30 }
  - { offsetInCU: 0x1FCE8, offset: 0x4F27F, size: 0x8, addend: 0x0, symName: __ZN11CasePayanteD1Ev, symObjAddr: 0x7030, symBinAddr: 0x10000FC10, symSize: 0x10 }
  - { offsetInCU: 0x1FD14, offset: 0x4F2AB, size: 0x8, addend: 0x0, symName: __ZN11CasePayanteD0Ev, symObjAddr: 0x7040, symBinAddr: 0x10000FC20, symSize: 0x10 }
  - { offsetInCU: 0x1FD40, offset: 0x4F2D7, size: 0x8, addend: 0x0, symName: __ZNK6Joueur7getPionEv, symObjAddr: 0x7050, symBinAddr: 0x10000FC30, symSize: 0x20 }
  - { offsetInCU: 0x1FD66, offset: 0x4F2FD, size: 0x8, addend: 0x0, symName: __ZNK4Pion6getPosEv, symObjAddr: 0x7070, symBinAddr: 0x10000FC50, symSize: 0x20 }
  - { offsetInCU: 0x1FD8C, offset: 0x4F323, size: 0x8, addend: 0x0, symName: __ZNK6Joueur16getCasesAcheteesEv, symObjAddr: 0x7090, symBinAddr: 0x10000FC70, symSize: 0x30 }
  - { offsetInCU: 0x1FDB2, offset: 0x4F349, size: 0x8, addend: 0x0, symName: __ZNSt3__16vectorIiNS_9allocatorIiEEE5beginB7v160006Ev, symObjAddr: 0x70C0, symBinAddr: 0x10000FCA0, symSize: 0x30 }
  - { offsetInCU: 0x1FDDA, offset: 0x4F371, size: 0x8, addend: 0x0, symName: __ZNSt3__16vectorIiNS_9allocatorIiEEE3endB7v160006Ev, symObjAddr: 0x70F0, symBinAddr: 0x10000FCD0, symSize: 0x30 }
  - { offsetInCU: 0x1FE02, offset: 0x4F399, size: 0x8, addend: 0x0, symName: __ZNKSt3__111__wrap_iterIPiEdeB7v160006Ev, symObjAddr: 0x7150, symBinAddr: 0x10000FD30, symSize: 0x20 }
  - { offsetInCU: 0x1FE28, offset: 0x4F3BF, size: 0x8, addend: 0x0, symName: __ZNSt3__111__wrap_iterIPiEppB7v160006Ev, symObjAddr: 0x7170, symBinAddr: 0x10000FD50, symSize: 0x20 }
  - { offsetInCU: 0x1FE4E, offset: 0x4F3E5, size: 0x8, addend: 0x0, symName: __ZNSt3__16vectorIiNS_9allocatorIiEEED1B7v160006Ev, symObjAddr: 0x7190, symBinAddr: 0x10000FD70, symSize: 0x20 }
  - { offsetInCU: 0x1FE78, offset: 0x4F40F, size: 0x8, addend: 0x0, symName: __ZNK6Joueur6getBotEv, symObjAddr: 0x71B0, symBinAddr: 0x10000FD90, symSize: 0x20 }
  - { offsetInCU: 0x1FE9E, offset: 0x4F435, size: 0x8, addend: 0x0, symName: __ZNK13CasePropriete10payerLoyerER6JoueurRN2sf12RenderWindowENSt3__16vectorINS2_7Vector2IfEENS5_9allocatorIS8_EEEE, symObjAddr: 0x71D0, symBinAddr: 0x10000FDB0, symSize: 0xA90 }
  - { offsetInCU: 0x1FFC4, offset: 0x4F55B, size: 0x8, addend: 0x0, symName: __ZNSt3__16vectorIN2sf7Vector2IfEENS_9allocatorIS3_EEEC1ERKS6_, symObjAddr: 0x7C60, symBinAddr: 0x100010840, symSize: 0x30 }
  - { offsetInCU: 0x1FFFF, offset: 0x4F596, size: 0x8, addend: 0x0, symName: __ZNK13CasePropriete13payerLoyerBotER6JoueurRN2sf12RenderWindowENSt3__16vectorINS2_7Vector2IfEENS5_9allocatorIS8_EEEE, symObjAddr: 0x7C90, symBinAddr: 0x100010870, symSize: 0xF0 }
  - { offsetInCU: 0x2005F, offset: 0x4F5F6, size: 0x8, addend: 0x0, symName: __ZNK13CasePropriete17achatInstallationER6JoueurRN2sf12RenderWindowENSt3__16vectorINS2_7Vector2IfEENS5_9allocatorIS8_EEEE, symObjAddr: 0x7D80, symBinAddr: 0x100010960, symSize: 0xC10 }
  - { offsetInCU: 0x202D4, offset: 0x4F86B, size: 0x8, addend: 0x0, symName: __ZNK13CasePropriete20achatInstallationBotER6JoueurRN2sf12RenderWindowENSt3__16vectorINS2_7Vector2IfEENS5_9allocatorIS8_EEEE, symObjAddr: 0x8990, symBinAddr: 0x100011570, symSize: 0x180 }
  - { offsetInCU: 0x203BC, offset: 0x4F953, size: 0x8, addend: 0x0, symName: __ZNK13CasePropriete10achatspptsER6JoueurRN2sf12RenderWindowENSt3__16vectorINS2_7Vector2IfEENS5_9allocatorIS8_EEEE, symObjAddr: 0x8B10, symBinAddr: 0x1000116F0, symSize: 0x850 }
  - { offsetInCU: 0x204A0, offset: 0x4FA37, size: 0x8, addend: 0x0, symName: __ZNK13CasePropriete12achatpptsbotER6JoueurRN2sf12RenderWindowENSt3__16vectorINS2_7Vector2IfEENS5_9allocatorIS8_EEEE, symObjAddr: 0x9360, symBinAddr: 0x100011F40, symSize: 0x170 }
  - { offsetInCU: 0x20519, offset: 0x4FAB0, size: 0x8, addend: 0x0, symName: __ZNSt3__16vectorIiNS_9allocatorIiEEEC1ERKS3_, symObjAddr: 0x94D0, symBinAddr: 0x1000120B0, symSize: 0x30 }
  - { offsetInCU: 0x20554, offset: 0x4FAEB, size: 0x8, addend: 0x0, symName: __ZNSt3__16vectorIiNS_9allocatorIiEEEC2ERKS3_, symObjAddr: 0x9500, symBinAddr: 0x1000120E0, symSize: 0x110 }
  - { offsetInCU: 0x205BF, offset: 0x4FB56, size: 0x8, addend: 0x0, symName: __ZNSt3__116allocator_traitsINS_9allocatorIiEEE37select_on_container_copy_constructionB7v160006IS2_vvEES2_RKS2_, symObjAddr: 0x9610, symBinAddr: 0x1000121F0, symSize: 0x10 }
  - { offsetInCU: 0x205EE, offset: 0x4FB85, size: 0x8, addend: 0x0, symName: __ZNKSt3__16vectorIiNS_9allocatorIiEEE7__allocB7v160006Ev, symObjAddr: 0x9620, symBinAddr: 0x100012200, symSize: 0x20 }
  - { offsetInCU: 0x20619, offset: 0x4FBB0, size: 0x8, addend: 0x0, symName: __ZNSt3__117__compressed_pairIPiNS_9allocatorIiEEEC1B7v160006IDnS3_EEOT_OT0_, symObjAddr: 0x9640, symBinAddr: 0x100012220, symSize: 0x30 }
  - { offsetInCU: 0x20671, offset: 0x4FC08, size: 0x8, addend: 0x0, symName: __ZNSt3__16vectorIiNS_9allocatorIiEEE16__destroy_vectorC1ERS3_, symObjAddr: 0x96B0, symBinAddr: 0x100012290, symSize: 0x30 }
  - { offsetInCU: 0x206AA, offset: 0x4FC41, size: 0x8, addend: 0x0, symName: __ZNKSt3__16vectorIiNS_9allocatorIiEEE4sizeB7v160006Ev, symObjAddr: 0x96F0, symBinAddr: 0x1000122D0, symSize: 0x20 }
  - { offsetInCU: 0x206D0, offset: 0x4FC67, size: 0x8, addend: 0x0, symName: __ZNSt3__16vectorIiNS_9allocatorIiEEE11__vallocateB7v160006Em, symObjAddr: 0x9710, symBinAddr: 0x1000122F0, symSize: 0xA0 }
  - { offsetInCU: 0x20714, offset: 0x4FCAB, size: 0x8, addend: 0x0, symName: __ZNSt3__16vectorIiNS_9allocatorIiEEE18__construct_at_endIPiLi0EEEvT_S6_m, symObjAddr: 0x97B0, symBinAddr: 0x100012390, symSize: 0x90 }
  - { offsetInCU: 0x20787, offset: 0x4FD1E, size: 0x8, addend: 0x0, symName: __ZNSt3__128__exception_guard_exceptionsINS_6vectorIiNS_9allocatorIiEEE16__destroy_vectorEE10__completeB7v160006Ev, symObjAddr: 0x9840, symBinAddr: 0x100012420, symSize: 0x20 }
  - { offsetInCU: 0x207AD, offset: 0x4FD44, size: 0x8, addend: 0x0, symName: __ZNSt3__128__exception_guard_exceptionsINS_6vectorIiNS_9allocatorIiEEE16__destroy_vectorEED1B7v160006Ev, symObjAddr: 0x9860, symBinAddr: 0x100012440, symSize: 0x20 }
  - { offsetInCU: 0x207D7, offset: 0x4FD6E, size: 0x8, addend: 0x0, symName: __ZNKSt3__117__compressed_pairIPiNS_9allocatorIiEEE6secondB7v160006Ev, symObjAddr: 0x9880, symBinAddr: 0x100012460, symSize: 0x20 }
  - { offsetInCU: 0x207FD, offset: 0x4FD94, size: 0x8, addend: 0x0, symName: __ZNKSt3__122__compressed_pair_elemINS_9allocatorIiEELi1ELb1EE5__getB7v160006Ev, symObjAddr: 0x98A0, symBinAddr: 0x100012480, symSize: 0x10 }
  - { offsetInCU: 0x20823, offset: 0x4FDBA, size: 0x8, addend: 0x0, symName: __ZNSt3__117__compressed_pairIPiNS_9allocatorIiEEEC2B7v160006IDnS3_EEOT_OT0_, symObjAddr: 0x98B0, symBinAddr: 0x100012490, symSize: 0x40 }
  - { offsetInCU: 0x2087B, offset: 0x4FE12, size: 0x8, addend: 0x0, symName: __ZNSt3__122__compressed_pair_elemIPiLi0ELb0EEC2B7v160006IDnvEEOT_, symObjAddr: 0x98F0, symBinAddr: 0x1000124D0, symSize: 0x20 }
  - { offsetInCU: 0x208BD, offset: 0x4FE54, size: 0x8, addend: 0x0, symName: __ZNSt3__122__compressed_pair_elemINS_9allocatorIiEELi1ELb1EEC2B7v160006IS2_vEEOT_, symObjAddr: 0x9910, symBinAddr: 0x1000124F0, symSize: 0x10 }
  - { offsetInCU: 0x208FF, offset: 0x4FE96, size: 0x8, addend: 0x0, symName: __ZNSt3__128__exception_guard_exceptionsINS_6vectorIiNS_9allocatorIiEEE16__destroy_vectorEEC1B7v160006ES5_, symObjAddr: 0x9920, symBinAddr: 0x100012500, symSize: 0x30 }
  - { offsetInCU: 0x20937, offset: 0x4FECE, size: 0x8, addend: 0x0, symName: __ZNSt3__128__exception_guard_exceptionsINS_6vectorIiNS_9allocatorIiEEE16__destroy_vectorEEC2B7v160006ES5_, symObjAddr: 0x9950, symBinAddr: 0x100012530, symSize: 0x20 }
  - { offsetInCU: 0x2096F, offset: 0x4FF06, size: 0x8, addend: 0x0, symName: __ZNSt3__16vectorIiNS_9allocatorIiEEE16__destroy_vectorC2ERS3_, symObjAddr: 0x9970, symBinAddr: 0x100012550, symSize: 0x20 }
  - { offsetInCU: 0x209A8, offset: 0x4FF3F, size: 0x8, addend: 0x0, symName: __ZNKSt3__16vectorIiNS_9allocatorIiEEE8max_sizeEv, symObjAddr: 0x9990, symBinAddr: 0x100012570, symSize: 0x60 }
  - { offsetInCU: 0x209D0, offset: 0x4FF67, size: 0x8, addend: 0x0, symName: __ZNKSt3__16vectorIiNS_9allocatorIiEEE20__throw_length_errorB7v160006Ev, symObjAddr: 0x99F0, symBinAddr: 0x1000125D0, symSize: 0x20 }
  - { offsetInCU: 0x209F6, offset: 0x4FF8D, size: 0x8, addend: 0x0, symName: __ZNSt3__16vectorIiNS_9allocatorIiEEE7__allocB7v160006Ev, symObjAddr: 0x9A50, symBinAddr: 0x100012630, symSize: 0x20 }
  - { offsetInCU: 0x20A1C, offset: 0x4FFB3, size: 0x8, addend: 0x0, symName: __ZNSt3__16vectorIiNS_9allocatorIiEEE9__end_capB7v160006Ev, symObjAddr: 0x9A70, symBinAddr: 0x100012650, symSize: 0x20 }
  - { offsetInCU: 0x20A42, offset: 0x4FFD9, size: 0x8, addend: 0x0, symName: __ZNKSt3__16vectorIiNS_9allocatorIiEEE14__annotate_newB7v160006Em, symObjAddr: 0x9A90, symBinAddr: 0x100012670, symSize: 0xB0 }
  - { offsetInCU: 0x20A77, offset: 0x5000E, size: 0x8, addend: 0x0, symName: __ZNSt3__116allocator_traitsINS_9allocatorIiEEE8max_sizeB7v160006IS2_vEEmRKS2_, symObjAddr: 0x9B40, symBinAddr: 0x100012720, symSize: 0x20 }
  - { offsetInCU: 0x20AA5, offset: 0x5003C, size: 0x8, addend: 0x0, symName: __ZNKSt3__19allocatorIiE8max_sizeB7v160006Ev, symObjAddr: 0x9B60, symBinAddr: 0x100012740, symSize: 0x20 }
  - { offsetInCU: 0x20ACB, offset: 0x50062, size: 0x8, addend: 0x0, symName: __ZNSt3__19allocatorIiE8allocateB7v160006Em, symObjAddr: 0x9B80, symBinAddr: 0x100012760, symSize: 0x50 }
  - { offsetInCU: 0x20AFF, offset: 0x50096, size: 0x8, addend: 0x0, symName: __ZNSt3__117__compressed_pairIPiNS_9allocatorIiEEE6secondB7v160006Ev, symObjAddr: 0x9BD0, symBinAddr: 0x1000127B0, symSize: 0x20 }
  - { offsetInCU: 0x20B25, offset: 0x500BC, size: 0x8, addend: 0x0, symName: __ZNSt3__122__compressed_pair_elemINS_9allocatorIiEELi1ELb1EE5__getB7v160006Ev, symObjAddr: 0x9BF0, symBinAddr: 0x1000127D0, symSize: 0x10 }
  - { offsetInCU: 0x20B4B, offset: 0x500E2, size: 0x8, addend: 0x0, symName: __ZNSt3__117__compressed_pairIPiNS_9allocatorIiEEE5firstB7v160006Ev, symObjAddr: 0x9C00, symBinAddr: 0x1000127E0, symSize: 0x20 }
  - { offsetInCU: 0x20B71, offset: 0x50108, size: 0x8, addend: 0x0, symName: __ZNSt3__122__compressed_pair_elemIPiLi0ELb0EE5__getB7v160006Ev, symObjAddr: 0x9C20, symBinAddr: 0x100012800, symSize: 0x10 }
  - { offsetInCU: 0x20B97, offset: 0x5012E, size: 0x8, addend: 0x0, symName: __ZNKSt3__16vectorIiNS_9allocatorIiEEE31__annotate_contiguous_containerB7v160006EPKvS5_S5_S5_, symObjAddr: 0x9C30, symBinAddr: 0x100012810, symSize: 0x20 }
  - { offsetInCU: 0x20BED, offset: 0x50184, size: 0x8, addend: 0x0, symName: __ZNKSt3__16vectorIiNS_9allocatorIiEEE4dataB7v160006Ev, symObjAddr: 0x9C50, symBinAddr: 0x100012830, symSize: 0x20 }
  - { offsetInCU: 0x20C13, offset: 0x501AA, size: 0x8, addend: 0x0, symName: __ZNKSt3__16vectorIiNS_9allocatorIiEEE8capacityB7v160006Ev, symObjAddr: 0x9C70, symBinAddr: 0x100012850, symSize: 0x30 }
  - { offsetInCU: 0x20C39, offset: 0x501D0, size: 0x8, addend: 0x0, symName: __ZNKSt3__16vectorIiNS_9allocatorIiEEE9__end_capB7v160006Ev, symObjAddr: 0x9CB0, symBinAddr: 0x100012890, symSize: 0x20 }
  - { offsetInCU: 0x20C5F, offset: 0x501F6, size: 0x8, addend: 0x0, symName: __ZNKSt3__117__compressed_pairIPiNS_9allocatorIiEEE5firstB7v160006Ev, symObjAddr: 0x9CD0, symBinAddr: 0x1000128B0, symSize: 0x20 }
  - { offsetInCU: 0x20C85, offset: 0x5021C, size: 0x8, addend: 0x0, symName: __ZNKSt3__122__compressed_pair_elemIPiLi0ELb0EE5__getB7v160006Ev, symObjAddr: 0x9CF0, symBinAddr: 0x1000128D0, symSize: 0x10 }
  - { offsetInCU: 0x20CC4, offset: 0x5025B, size: 0x8, addend: 0x0, symName: __ZNSt3__16vectorIiNS_9allocatorIiEEE21_ConstructTransactionC1B7v160006ERS3_m, symObjAddr: 0x9D00, symBinAddr: 0x1000128E0, symSize: 0x30 }
  - { offsetInCU: 0x20D0C, offset: 0x502A3, size: 0x8, addend: 0x0, symName: __ZNSt3__16vectorIiNS_9allocatorIiEEE21_ConstructTransactionD1B7v160006Ev, symObjAddr: 0x9E30, symBinAddr: 0x100012A10, symSize: 0x20 }
  - { offsetInCU: 0x20D36, offset: 0x502CD, size: 0x8, addend: 0x0, symName: __ZNSt3__16vectorIiNS_9allocatorIiEEE21_ConstructTransactionC2B7v160006ERS3_m, symObjAddr: 0x9E50, symBinAddr: 0x100012A30, symSize: 0x40 }
  - { offsetInCU: 0x20D7E, offset: 0x50315, size: 0x8, addend: 0x0, symName: __ZNSt3__129_AllocatorDestroyRangeReverseINS_9allocatorIiEEPiEC1B7v160006ERS2_RS3_S6_, symObjAddr: 0x9EF0, symBinAddr: 0x100012AD0, symSize: 0x40 }
  - { offsetInCU: 0x20DD5, offset: 0x5036C, size: 0x8, addend: 0x0, symName: __ZNSt3__116allocator_traitsINS_9allocatorIiEEE9constructB7v160006IiJRiEvEEvRS2_PT_DpOT0_, symObjAddr: 0x9F30, symBinAddr: 0x100012B10, symSize: 0x30 }
  - { offsetInCU: 0x20E2C, offset: 0x503C3, size: 0x8, addend: 0x0, symName: __ZNSt3__128__exception_guard_exceptionsINS_29_AllocatorDestroyRangeReverseINS_9allocatorIiEEPiEEE10__completeB7v160006Ev, symObjAddr: 0x9F60, symBinAddr: 0x100012B40, symSize: 0x20 }
  - { offsetInCU: 0x20E52, offset: 0x503E9, size: 0x8, addend: 0x0, symName: __ZNSt3__128__exception_guard_exceptionsINS_29_AllocatorDestroyRangeReverseINS_9allocatorIiEEPiEEED1B7v160006Ev, symObjAddr: 0x9F80, symBinAddr: 0x100012B60, symSize: 0x20 }
  - { offsetInCU: 0x20E7C, offset: 0x50413, size: 0x8, addend: 0x0, symName: __ZNSt3__128__exception_guard_exceptionsINS_29_AllocatorDestroyRangeReverseINS_9allocatorIiEEPiEEEC1B7v160006ES5_, symObjAddr: 0x9FA0, symBinAddr: 0x100012B80, symSize: 0x40 }
  - { offsetInCU: 0x20EB4, offset: 0x5044B, size: 0x8, addend: 0x0, symName: __ZNSt3__128__exception_guard_exceptionsINS_29_AllocatorDestroyRangeReverseINS_9allocatorIiEEPiEEEC2B7v160006ES5_, symObjAddr: 0x9FE0, symBinAddr: 0x100012BC0, symSize: 0x30 }
  - { offsetInCU: 0x20EEC, offset: 0x50483, size: 0x8, addend: 0x0, symName: __ZNSt3__129_AllocatorDestroyRangeReverseINS_9allocatorIiEEPiEC2B7v160006ERS2_RS3_S6_, symObjAddr: 0xA010, symBinAddr: 0x100012BF0, symSize: 0x40 }
  - { offsetInCU: 0x20F43, offset: 0x504DA, size: 0x8, addend: 0x0, symName: __ZNSt3__19allocatorIiE9constructB7v160006IiJRiEEEvPT_DpOT0_, symObjAddr: 0xA050, symBinAddr: 0x100012C30, symSize: 0x20 }
  - { offsetInCU: 0x20F99, offset: 0x50530, size: 0x8, addend: 0x0, symName: __ZNSt3__128__exception_guard_exceptionsINS_29_AllocatorDestroyRangeReverseINS_9allocatorIiEEPiEEED2B7v160006Ev, symObjAddr: 0xA070, symBinAddr: 0x100012C50, symSize: 0x40 }
  - { offsetInCU: 0x20FC3, offset: 0x5055A, size: 0x8, addend: 0x0, symName: __ZNKSt3__129_AllocatorDestroyRangeReverseINS_9allocatorIiEEPiEclB7v160006Ev, symObjAddr: 0xA0B0, symBinAddr: 0x100012C90, symSize: 0x60 }
  - { offsetInCU: 0x20FE9, offset: 0x50580, size: 0x8, addend: 0x0, symName: __ZNSt3__116reverse_iteratorIPiEC1B7v160006ES1_, symObjAddr: 0xA180, symBinAddr: 0x100012D60, symSize: 0x30 }
  - { offsetInCU: 0x21021, offset: 0x505B8, size: 0x8, addend: 0x0, symName: __ZNSt3__116allocator_traitsINS_9allocatorIiEEE7destroyB7v160006IivEEvRS2_PT_, symObjAddr: 0xA1F0, symBinAddr: 0x100012DD0, symSize: 0x30 }
  - { offsetInCU: 0x2105E, offset: 0x505F5, size: 0x8, addend: 0x0, symName: __ZNSt3__116reverse_iteratorIPiEppB7v160006Ev, symObjAddr: 0xA240, symBinAddr: 0x100012E20, symSize: 0x20 }
  - { offsetInCU: 0x21084, offset: 0x5061B, size: 0x8, addend: 0x0, symName: __ZNKSt3__116reverse_iteratorIPiE4baseB7v160006Ev, symObjAddr: 0xA260, symBinAddr: 0x100012E40, symSize: 0x20 }
  - { offsetInCU: 0x210AA, offset: 0x50641, size: 0x8, addend: 0x0, symName: __ZNSt3__19allocatorIiE7destroyB7v160006EPi, symObjAddr: 0xA280, symBinAddr: 0x100012E60, symSize: 0x10 }
  - { offsetInCU: 0x210E3, offset: 0x5067A, size: 0x8, addend: 0x0, symName: __ZNSt3__119__to_address_helperINS_16reverse_iteratorIPiEEvE6__callB7v160006ERKS3_, symObjAddr: 0xA290, symBinAddr: 0x100012E70, symSize: 0x40 }
  - { offsetInCU: 0x21106, offset: 0x5069D, size: 0x8, addend: 0x0, symName: __ZNKSt3__116reverse_iteratorIPiEptB7v160006Ev, symObjAddr: 0xA2D0, symBinAddr: 0x100012EB0, symSize: 0x20 }
  - { offsetInCU: 0x2112C, offset: 0x506C3, size: 0x8, addend: 0x0, symName: __ZNKSt3__116reverse_iteratorIPiEdeB7v160006Ev, symObjAddr: 0xA2F0, symBinAddr: 0x100012ED0, symSize: 0x30 }
  - { offsetInCU: 0x21161, offset: 0x506F8, size: 0x8, addend: 0x0, symName: __ZNSt3__116reverse_iteratorIPiEC2B7v160006ES1_, symObjAddr: 0xA320, symBinAddr: 0x100012F00, symSize: 0x30 }
  - { offsetInCU: 0x21199, offset: 0x50730, size: 0x8, addend: 0x0, symName: __ZNSt3__16vectorIiNS_9allocatorIiEEE21_ConstructTransactionD2B7v160006Ev, symObjAddr: 0xA350, symBinAddr: 0x100012F30, symSize: 0x20 }
  - { offsetInCU: 0x211C3, offset: 0x5075A, size: 0x8, addend: 0x0, symName: __ZNSt3__128__exception_guard_exceptionsINS_6vectorIiNS_9allocatorIiEEE16__destroy_vectorEED2B7v160006Ev, symObjAddr: 0xA370, symBinAddr: 0x100012F50, symSize: 0x40 }
  - { offsetInCU: 0x211ED, offset: 0x50784, size: 0x8, addend: 0x0, symName: __ZNSt3__16vectorIiNS_9allocatorIiEEE16__destroy_vectorclB7v160006Ev, symObjAddr: 0xA3B0, symBinAddr: 0x100012F90, symSize: 0x90 }
  - { offsetInCU: 0x21213, offset: 0x507AA, size: 0x8, addend: 0x0, symName: __ZNKSt3__16vectorIiNS_9allocatorIiEEE17__annotate_deleteB7v160006Ev, symObjAddr: 0xA440, symBinAddr: 0x100013020, symSize: 0xB0 }
  - { offsetInCU: 0x21239, offset: 0x507D0, size: 0x8, addend: 0x0, symName: __ZNSt3__16vectorIiNS_9allocatorIiEEE7__clearB7v160006Ev, symObjAddr: 0xA500, symBinAddr: 0x1000130E0, symSize: 0x20 }
  - { offsetInCU: 0x2125F, offset: 0x507F6, size: 0x8, addend: 0x0, symName: __ZNSt3__116allocator_traitsINS_9allocatorIiEEE10deallocateB7v160006ERS2_Pim, symObjAddr: 0xA520, symBinAddr: 0x100013100, symSize: 0x30 }
  - { offsetInCU: 0x212A1, offset: 0x50838, size: 0x8, addend: 0x0, symName: __ZNSt3__16vectorIiNS_9allocatorIiEEE22__base_destruct_at_endB7v160006EPi, symObjAddr: 0xA550, symBinAddr: 0x100013130, symSize: 0x80 }
  - { offsetInCU: 0x212E5, offset: 0x5087C, size: 0x8, addend: 0x0, symName: __ZNSt3__19allocatorIiE10deallocateB7v160006EPim, symObjAddr: 0xA5D0, symBinAddr: 0x1000131B0, symSize: 0x40 }
  - { offsetInCU: 0x21327, offset: 0x508BE, size: 0x8, addend: 0x0, symName: __ZNSt3__16vectorIiNS_9allocatorIiEEE11__make_iterB7v160006EPi, symObjAddr: 0xA610, symBinAddr: 0x1000131F0, symSize: 0x30 }
  - { offsetInCU: 0x2135C, offset: 0x508F3, size: 0x8, addend: 0x0, symName: __ZNSt3__111__wrap_iterIPiEC1B7v160006EPKvS1_, symObjAddr: 0xA640, symBinAddr: 0x100013220, symSize: 0x30 }
  - { offsetInCU: 0x213A2, offset: 0x50939, size: 0x8, addend: 0x0, symName: __ZNSt3__111__wrap_iterIPiEC2B7v160006EPKvS1_, symObjAddr: 0xA670, symBinAddr: 0x100013250, symSize: 0x20 }
  - { offsetInCU: 0x213E8, offset: 0x5097F, size: 0x8, addend: 0x0, symName: __ZNKSt3__111__wrap_iterIPiE4baseB7v160006Ev, symObjAddr: 0xA6D0, symBinAddr: 0x1000132B0, symSize: 0x20 }
  - { offsetInCU: 0x2140E, offset: 0x509A5, size: 0x8, addend: 0x0, symName: __ZNSt3__16vectorIiNS_9allocatorIiEEED2B7v160006Ev, symObjAddr: 0xA6F0, symBinAddr: 0x1000132D0, symSize: 0x40 }
  - { offsetInCU: 0x21438, offset: 0x509CF, size: 0x8, addend: 0x0, symName: __ZNK13CasePropriete15getNombreStadesEv, symObjAddr: 0xA730, symBinAddr: 0x100013310, symSize: 0x20 }
  - { offsetInCU: 0x2145E, offset: 0x509F5, size: 0x8, addend: 0x0, symName: __ZNK13CasePropriete17getNombrePiscinesEv, symObjAddr: 0xA750, symBinAddr: 0x100013330, symSize: 0x20 }
  - { offsetInCU: 0x21484, offset: 0x50A1B, size: 0x8, addend: 0x0, symName: __ZNK13CasePropriete15getNombreSallesEv, symObjAddr: 0xA770, symBinAddr: 0x100013350, symSize: 0x20 }
  - { offsetInCU: 0x214B4, offset: 0x50A4B, size: 0x8, addend: 0x0, symName: __ZNKSt3__16__lessIiiEclB7v160006ERKiS3_, symObjAddr: 0xA810, symBinAddr: 0x1000133F0, symSize: 0x30 }
  - { offsetInCU: 0x214F6, offset: 0x50A8D, size: 0x8, addend: 0x0, symName: __ZNSt3__16vectorIN2sf7Vector2IfEENS_9allocatorIS3_EEEC2ERKS6_, symObjAddr: 0xA840, symBinAddr: 0x100013420, symSize: 0x110 }
  - { offsetInCU: 0x21561, offset: 0x50AF8, size: 0x8, addend: 0x0, symName: __ZNSt3__116allocator_traitsINS_9allocatorIN2sf7Vector2IfEEEEE37select_on_container_copy_constructionB7v160006IS5_vvEES5_RKS5_, symObjAddr: 0xA950, symBinAddr: 0x100013530, symSize: 0x10 }
  - { offsetInCU: 0x21590, offset: 0x50B27, size: 0x8, addend: 0x0, symName: __ZNKSt3__16vectorIN2sf7Vector2IfEENS_9allocatorIS3_EEE7__allocB7v160006Ev, symObjAddr: 0xA960, symBinAddr: 0x100013540, symSize: 0x20 }
  - { offsetInCU: 0x215BB, offset: 0x50B52, size: 0x8, addend: 0x0, symName: __ZNSt3__117__compressed_pairIPN2sf7Vector2IfEENS_9allocatorIS3_EEEC1B7v160006IDnS6_EEOT_OT0_, symObjAddr: 0xA980, symBinAddr: 0x100013560, symSize: 0x30 }
  - { offsetInCU: 0x21613, offset: 0x50BAA, size: 0x8, addend: 0x0, symName: __ZNSt3__16vectorIN2sf7Vector2IfEENS_9allocatorIS3_EEE16__destroy_vectorC1ERS6_, symObjAddr: 0xA9F0, symBinAddr: 0x1000135D0, symSize: 0x30 }
  - { offsetInCU: 0x2164C, offset: 0x50BE3, size: 0x8, addend: 0x0, symName: __ZNKSt3__16vectorIN2sf7Vector2IfEENS_9allocatorIS3_EEE4sizeB7v160006Ev, symObjAddr: 0xAA30, symBinAddr: 0x100013610, symSize: 0x20 }
  - { offsetInCU: 0x21672, offset: 0x50C09, size: 0x8, addend: 0x0, symName: __ZNSt3__16vectorIN2sf7Vector2IfEENS_9allocatorIS3_EEE11__vallocateB7v160006Em, symObjAddr: 0xAA50, symBinAddr: 0x100013630, symSize: 0xA0 }
  - { offsetInCU: 0x216B6, offset: 0x50C4D, size: 0x8, addend: 0x0, symName: __ZNSt3__16vectorIN2sf7Vector2IfEENS_9allocatorIS3_EEE18__construct_at_endIPS3_Li0EEEvT_S9_m, symObjAddr: 0xAAF0, symBinAddr: 0x1000136D0, symSize: 0x90 }
  - { offsetInCU: 0x21729, offset: 0x50CC0, size: 0x8, addend: 0x0, symName: __ZNSt3__128__exception_guard_exceptionsINS_6vectorIN2sf7Vector2IfEENS_9allocatorIS4_EEE16__destroy_vectorEE10__completeB7v160006Ev, symObjAddr: 0xAB80, symBinAddr: 0x100013760, symSize: 0x20 }
  - { offsetInCU: 0x2174F, offset: 0x50CE6, size: 0x8, addend: 0x0, symName: __ZNSt3__128__exception_guard_exceptionsINS_6vectorIN2sf7Vector2IfEENS_9allocatorIS4_EEE16__destroy_vectorEED1B7v160006Ev, symObjAddr: 0xABA0, symBinAddr: 0x100013780, symSize: 0x20 }
  - { offsetInCU: 0x21779, offset: 0x50D10, size: 0x8, addend: 0x0, symName: __ZNKSt3__117__compressed_pairIPN2sf7Vector2IfEENS_9allocatorIS3_EEE6secondB7v160006Ev, symObjAddr: 0xABC0, symBinAddr: 0x1000137A0, symSize: 0x20 }
  - { offsetInCU: 0x2179F, offset: 0x50D36, size: 0x8, addend: 0x0, symName: __ZNKSt3__122__compressed_pair_elemINS_9allocatorIN2sf7Vector2IfEEEELi1ELb1EE5__getB7v160006Ev, symObjAddr: 0xABE0, symBinAddr: 0x1000137C0, symSize: 0x10 }
  - { offsetInCU: 0x217C5, offset: 0x50D5C, size: 0x8, addend: 0x0, symName: __ZNSt3__117__compressed_pairIPN2sf7Vector2IfEENS_9allocatorIS3_EEEC2B7v160006IDnS6_EEOT_OT0_, symObjAddr: 0xABF0, symBinAddr: 0x1000137D0, symSize: 0x40 }
  - { offsetInCU: 0x2181D, offset: 0x50DB4, size: 0x8, addend: 0x0, symName: __ZNSt3__122__compressed_pair_elemIPN2sf7Vector2IfEELi0ELb0EEC2B7v160006IDnvEEOT_, symObjAddr: 0xAC30, symBinAddr: 0x100013810, symSize: 0x20 }
  - { offsetInCU: 0x2185F, offset: 0x50DF6, size: 0x8, addend: 0x0, symName: __ZNSt3__122__compressed_pair_elemINS_9allocatorIN2sf7Vector2IfEEEELi1ELb1EEC2B7v160006IS5_vEEOT_, symObjAddr: 0xAC50, symBinAddr: 0x100013830, symSize: 0x10 }
  - { offsetInCU: 0x218A1, offset: 0x50E38, size: 0x8, addend: 0x0, symName: __ZNSt3__128__exception_guard_exceptionsINS_6vectorIN2sf7Vector2IfEENS_9allocatorIS4_EEE16__destroy_vectorEEC1B7v160006ES8_, symObjAddr: 0xAC60, symBinAddr: 0x100013840, symSize: 0x30 }
  - { offsetInCU: 0x218D9, offset: 0x50E70, size: 0x8, addend: 0x0, symName: __ZNSt3__128__exception_guard_exceptionsINS_6vectorIN2sf7Vector2IfEENS_9allocatorIS4_EEE16__destroy_vectorEEC2B7v160006ES8_, symObjAddr: 0xAC90, symBinAddr: 0x100013870, symSize: 0x20 }
  - { offsetInCU: 0x21911, offset: 0x50EA8, size: 0x8, addend: 0x0, symName: __ZNSt3__16vectorIN2sf7Vector2IfEENS_9allocatorIS3_EEE16__destroy_vectorC2ERS6_, symObjAddr: 0xACB0, symBinAddr: 0x100013890, symSize: 0x20 }
  - { offsetInCU: 0x2194A, offset: 0x50EE1, size: 0x8, addend: 0x0, symName: __ZNKSt3__16vectorIN2sf7Vector2IfEENS_9allocatorIS3_EEE8max_sizeEv, symObjAddr: 0xACD0, symBinAddr: 0x1000138B0, symSize: 0x60 }
  - { offsetInCU: 0x21972, offset: 0x50F09, size: 0x8, addend: 0x0, symName: __ZNKSt3__16vectorIN2sf7Vector2IfEENS_9allocatorIS3_EEE20__throw_length_errorB7v160006Ev, symObjAddr: 0xAD30, symBinAddr: 0x100013910, symSize: 0x20 }
  - { offsetInCU: 0x21998, offset: 0x50F2F, size: 0x8, addend: 0x0, symName: __ZNSt3__16vectorIN2sf7Vector2IfEENS_9allocatorIS3_EEE7__allocB7v160006Ev, symObjAddr: 0xAD90, symBinAddr: 0x100013970, symSize: 0x20 }
  - { offsetInCU: 0x219BE, offset: 0x50F55, size: 0x8, addend: 0x0, symName: __ZNSt3__16vectorIN2sf7Vector2IfEENS_9allocatorIS3_EEE9__end_capB7v160006Ev, symObjAddr: 0xADB0, symBinAddr: 0x100013990, symSize: 0x20 }
  - { offsetInCU: 0x219E4, offset: 0x50F7B, size: 0x8, addend: 0x0, symName: __ZNKSt3__16vectorIN2sf7Vector2IfEENS_9allocatorIS3_EEE14__annotate_newB7v160006Em, symObjAddr: 0xADD0, symBinAddr: 0x1000139B0, symSize: 0xB0 }
  - { offsetInCU: 0x21A19, offset: 0x50FB0, size: 0x8, addend: 0x0, symName: __ZNSt3__116allocator_traitsINS_9allocatorIN2sf7Vector2IfEEEEE8max_sizeB7v160006IS5_vEEmRKS5_, symObjAddr: 0xAE80, symBinAddr: 0x100013A60, symSize: 0x20 }
  - { offsetInCU: 0x21A47, offset: 0x50FDE, size: 0x8, addend: 0x0, symName: __ZNKSt3__19allocatorIN2sf7Vector2IfEEE8max_sizeB7v160006Ev, symObjAddr: 0xAEA0, symBinAddr: 0x100013A80, symSize: 0x20 }
  - { offsetInCU: 0x21A6D, offset: 0x51004, size: 0x8, addend: 0x0, symName: __ZNSt3__19allocatorIN2sf7Vector2IfEEE8allocateB7v160006Em, symObjAddr: 0xAEC0, symBinAddr: 0x100013AA0, symSize: 0x50 }
  - { offsetInCU: 0x21AA1, offset: 0x51038, size: 0x8, addend: 0x0, symName: __ZNSt3__117__compressed_pairIPN2sf7Vector2IfEENS_9allocatorIS3_EEE6secondB7v160006Ev, symObjAddr: 0xAF10, symBinAddr: 0x100013AF0, symSize: 0x20 }
  - { offsetInCU: 0x21AC7, offset: 0x5105E, size: 0x8, addend: 0x0, symName: __ZNSt3__122__compressed_pair_elemINS_9allocatorIN2sf7Vector2IfEEEELi1ELb1EE5__getB7v160006Ev, symObjAddr: 0xAF30, symBinAddr: 0x100013B10, symSize: 0x10 }
  - { offsetInCU: 0x21AED, offset: 0x51084, size: 0x8, addend: 0x0, symName: __ZNSt3__117__compressed_pairIPN2sf7Vector2IfEENS_9allocatorIS3_EEE5firstB7v160006Ev, symObjAddr: 0xAF40, symBinAddr: 0x100013B20, symSize: 0x20 }
  - { offsetInCU: 0x21B13, offset: 0x510AA, size: 0x8, addend: 0x0, symName: __ZNSt3__122__compressed_pair_elemIPN2sf7Vector2IfEELi0ELb0EE5__getB7v160006Ev, symObjAddr: 0xAF60, symBinAddr: 0x100013B40, symSize: 0x10 }
  - { offsetInCU: 0x21B39, offset: 0x510D0, size: 0x8, addend: 0x0, symName: __ZNKSt3__16vectorIN2sf7Vector2IfEENS_9allocatorIS3_EEE31__annotate_contiguous_containerB7v160006EPKvS8_S8_S8_, symObjAddr: 0xAF70, symBinAddr: 0x100013B50, symSize: 0x20 }
  - { offsetInCU: 0x21B8F, offset: 0x51126, size: 0x8, addend: 0x0, symName: __ZNKSt3__16vectorIN2sf7Vector2IfEENS_9allocatorIS3_EEE4dataB7v160006Ev, symObjAddr: 0xAF90, symBinAddr: 0x100013B70, symSize: 0x20 }
  - { offsetInCU: 0x21BB5, offset: 0x5114C, size: 0x8, addend: 0x0, symName: __ZNKSt3__16vectorIN2sf7Vector2IfEENS_9allocatorIS3_EEE8capacityB7v160006Ev, symObjAddr: 0xAFB0, symBinAddr: 0x100013B90, symSize: 0x30 }
  - { offsetInCU: 0x21BDB, offset: 0x51172, size: 0x8, addend: 0x0, symName: __ZNKSt3__16vectorIN2sf7Vector2IfEENS_9allocatorIS3_EEE9__end_capB7v160006Ev, symObjAddr: 0xAFF0, symBinAddr: 0x100013BD0, symSize: 0x20 }
  - { offsetInCU: 0x21C01, offset: 0x51198, size: 0x8, addend: 0x0, symName: __ZNKSt3__117__compressed_pairIPN2sf7Vector2IfEENS_9allocatorIS3_EEE5firstB7v160006Ev, symObjAddr: 0xB010, symBinAddr: 0x100013BF0, symSize: 0x20 }
  - { offsetInCU: 0x21C27, offset: 0x511BE, size: 0x8, addend: 0x0, symName: __ZNKSt3__122__compressed_pair_elemIPN2sf7Vector2IfEELi0ELb0EE5__getB7v160006Ev, symObjAddr: 0xB030, symBinAddr: 0x100013C10, symSize: 0x10 }
  - { offsetInCU: 0x21C66, offset: 0x511FD, size: 0x8, addend: 0x0, symName: __ZNSt3__16vectorIN2sf7Vector2IfEENS_9allocatorIS3_EEE21_ConstructTransactionC1B7v160006ERS6_m, symObjAddr: 0xB040, symBinAddr: 0x100013C20, symSize: 0x30 }
  - { offsetInCU: 0x21CAE, offset: 0x51245, size: 0x8, addend: 0x0, symName: __ZNSt3__16vectorIN2sf7Vector2IfEENS_9allocatorIS3_EEE21_ConstructTransactionD1B7v160006Ev, symObjAddr: 0xB170, symBinAddr: 0x100013D50, symSize: 0x20 }
  - { offsetInCU: 0x21CD8, offset: 0x5126F, size: 0x8, addend: 0x0, symName: __ZNSt3__16vectorIN2sf7Vector2IfEENS_9allocatorIS3_EEE21_ConstructTransactionC2B7v160006ERS6_m, symObjAddr: 0xB190, symBinAddr: 0x100013D70, symSize: 0x40 }
  - { offsetInCU: 0x21D20, offset: 0x512B7, size: 0x8, addend: 0x0, symName: __ZNSt3__129_AllocatorDestroyRangeReverseINS_9allocatorIN2sf7Vector2IfEEEEPS4_EC1B7v160006ERS5_RS6_S9_, symObjAddr: 0xB230, symBinAddr: 0x100013E10, symSize: 0x40 }
  - { offsetInCU: 0x21D77, offset: 0x5130E, size: 0x8, addend: 0x0, symName: __ZNSt3__116allocator_traitsINS_9allocatorIN2sf7Vector2IfEEEEE9constructB7v160006IS4_JRS4_EvEEvRS5_PT_DpOT0_, symObjAddr: 0xB270, symBinAddr: 0x100013E50, symSize: 0x30 }
  - { offsetInCU: 0x21DCE, offset: 0x51365, size: 0x8, addend: 0x0, symName: __ZNSt3__128__exception_guard_exceptionsINS_29_AllocatorDestroyRangeReverseINS_9allocatorIN2sf7Vector2IfEEEEPS5_EEE10__completeB7v160006Ev, symObjAddr: 0xB2A0, symBinAddr: 0x100013E80, symSize: 0x20 }
  - { offsetInCU: 0x21DF4, offset: 0x5138B, size: 0x8, addend: 0x0, symName: __ZNSt3__128__exception_guard_exceptionsINS_29_AllocatorDestroyRangeReverseINS_9allocatorIN2sf7Vector2IfEEEEPS5_EEED1B7v160006Ev, symObjAddr: 0xB2C0, symBinAddr: 0x100013EA0, symSize: 0x20 }
  - { offsetInCU: 0x21E1E, offset: 0x513B5, size: 0x8, addend: 0x0, symName: __ZNSt3__128__exception_guard_exceptionsINS_29_AllocatorDestroyRangeReverseINS_9allocatorIN2sf7Vector2IfEEEEPS5_EEEC1B7v160006ES8_, symObjAddr: 0xB2E0, symBinAddr: 0x100013EC0, symSize: 0x40 }
  - { offsetInCU: 0x21E56, offset: 0x513ED, size: 0x8, addend: 0x0, symName: __ZNSt3__128__exception_guard_exceptionsINS_29_AllocatorDestroyRangeReverseINS_9allocatorIN2sf7Vector2IfEEEEPS5_EEEC2B7v160006ES8_, symObjAddr: 0xB320, symBinAddr: 0x100013F00, symSize: 0x30 }
  - { offsetInCU: 0x21E8E, offset: 0x51425, size: 0x8, addend: 0x0, symName: __ZNSt3__129_AllocatorDestroyRangeReverseINS_9allocatorIN2sf7Vector2IfEEEEPS4_EC2B7v160006ERS5_RS6_S9_, symObjAddr: 0xB350, symBinAddr: 0x100013F30, symSize: 0x40 }
  - { offsetInCU: 0x21EE5, offset: 0x5147C, size: 0x8, addend: 0x0, symName: __ZNSt3__19allocatorIN2sf7Vector2IfEEE9constructB7v160006IS3_JRS3_EEEvPT_DpOT0_, symObjAddr: 0xB390, symBinAddr: 0x100013F70, symSize: 0x20 }
  - { offsetInCU: 0x21F3B, offset: 0x514D2, size: 0x8, addend: 0x0, symName: __ZNSt3__128__exception_guard_exceptionsINS_29_AllocatorDestroyRangeReverseINS_9allocatorIN2sf7Vector2IfEEEEPS5_EEED2B7v160006Ev, symObjAddr: 0xB3B0, symBinAddr: 0x100013F90, symSize: 0x40 }
  - { offsetInCU: 0x21F65, offset: 0x514FC, size: 0x8, addend: 0x0, symName: __ZNKSt3__129_AllocatorDestroyRangeReverseINS_9allocatorIN2sf7Vector2IfEEEEPS4_EclB7v160006Ev, symObjAddr: 0xB3F0, symBinAddr: 0x100013FD0, symSize: 0x60 }
  - { offsetInCU: 0x21F8B, offset: 0x51522, size: 0x8, addend: 0x0, symName: __ZNSt3__116reverse_iteratorIPN2sf7Vector2IfEEEC1B7v160006ES4_, symObjAddr: 0xB4C0, symBinAddr: 0x1000140A0, symSize: 0x30 }
  - { offsetInCU: 0x21FC3, offset: 0x5155A, size: 0x8, addend: 0x0, symName: __ZNSt3__116allocator_traitsINS_9allocatorIN2sf7Vector2IfEEEEE7destroyB7v160006IS4_vEEvRS5_PT_, symObjAddr: 0xB530, symBinAddr: 0x100014110, symSize: 0x30 }
  - { offsetInCU: 0x22000, offset: 0x51597, size: 0x8, addend: 0x0, symName: __ZNSt3__116reverse_iteratorIPN2sf7Vector2IfEEEppB7v160006Ev, symObjAddr: 0xB580, symBinAddr: 0x100014160, symSize: 0x20 }
  - { offsetInCU: 0x22026, offset: 0x515BD, size: 0x8, addend: 0x0, symName: __ZNKSt3__116reverse_iteratorIPN2sf7Vector2IfEEE4baseB7v160006Ev, symObjAddr: 0xB5A0, symBinAddr: 0x100014180, symSize: 0x20 }
  - { offsetInCU: 0x2204C, offset: 0x515E3, size: 0x8, addend: 0x0, symName: __ZNSt3__19allocatorIN2sf7Vector2IfEEE7destroyB7v160006EPS3_, symObjAddr: 0xB5C0, symBinAddr: 0x1000141A0, symSize: 0x10 }
  - { offsetInCU: 0x22085, offset: 0x5161C, size: 0x8, addend: 0x0, symName: __ZNSt3__119__to_address_helperINS_16reverse_iteratorIPN2sf7Vector2IfEEEEvE6__callB7v160006ERKS6_, symObjAddr: 0xB5D0, symBinAddr: 0x1000141B0, symSize: 0x40 }
  - { offsetInCU: 0x220A8, offset: 0x5163F, size: 0x8, addend: 0x0, symName: __ZNKSt3__116reverse_iteratorIPN2sf7Vector2IfEEEptB7v160006Ev, symObjAddr: 0xB610, symBinAddr: 0x1000141F0, symSize: 0x20 }
  - { offsetInCU: 0x220CE, offset: 0x51665, size: 0x8, addend: 0x0, symName: __ZNKSt3__116reverse_iteratorIPN2sf7Vector2IfEEEdeB7v160006Ev, symObjAddr: 0xB630, symBinAddr: 0x100014210, symSize: 0x30 }
  - { offsetInCU: 0x22103, offset: 0x5169A, size: 0x8, addend: 0x0, symName: __ZNSt3__116reverse_iteratorIPN2sf7Vector2IfEEEC2B7v160006ES4_, symObjAddr: 0xB660, symBinAddr: 0x100014240, symSize: 0x30 }
  - { offsetInCU: 0x2213B, offset: 0x516D2, size: 0x8, addend: 0x0, symName: __ZNSt3__16vectorIN2sf7Vector2IfEENS_9allocatorIS3_EEE21_ConstructTransactionD2B7v160006Ev, symObjAddr: 0xB690, symBinAddr: 0x100014270, symSize: 0x20 }
  - { offsetInCU: 0x22165, offset: 0x516FC, size: 0x8, addend: 0x0, symName: __ZNSt3__128__exception_guard_exceptionsINS_6vectorIN2sf7Vector2IfEENS_9allocatorIS4_EEE16__destroy_vectorEED2B7v160006Ev, symObjAddr: 0xB6B0, symBinAddr: 0x100014290, symSize: 0x40 }
  - { offsetInCU: 0x2218F, offset: 0x51726, size: 0x8, addend: 0x0, symName: __ZNSt3__16vectorIN2sf7Vector2IfEENS_9allocatorIS3_EEE16__destroy_vectorclB7v160006Ev, symObjAddr: 0xB6F0, symBinAddr: 0x1000142D0, symSize: 0x90 }
  - { offsetInCU: 0x221B5, offset: 0x5174C, size: 0x8, addend: 0x0, symName: __ZNKSt3__16vectorIN2sf7Vector2IfEENS_9allocatorIS3_EEE17__annotate_deleteB7v160006Ev, symObjAddr: 0xB780, symBinAddr: 0x100014360, symSize: 0xB0 }
  - { offsetInCU: 0x221DB, offset: 0x51772, size: 0x8, addend: 0x0, symName: __ZNSt3__16vectorIN2sf7Vector2IfEENS_9allocatorIS3_EEE7__clearB7v160006Ev, symObjAddr: 0xB840, symBinAddr: 0x100014420, symSize: 0x20 }
  - { offsetInCU: 0x22201, offset: 0x51798, size: 0x8, addend: 0x0, symName: __ZNSt3__116allocator_traitsINS_9allocatorIN2sf7Vector2IfEEEEE10deallocateB7v160006ERS5_PS4_m, symObjAddr: 0xB860, symBinAddr: 0x100014440, symSize: 0x30 }
  - { offsetInCU: 0x22243, offset: 0x517DA, size: 0x8, addend: 0x0, symName: __ZNSt3__16vectorIN2sf7Vector2IfEENS_9allocatorIS3_EEE22__base_destruct_at_endB7v160006EPS3_, symObjAddr: 0xB890, symBinAddr: 0x100014470, symSize: 0x80 }
  - { offsetInCU: 0x22287, offset: 0x5181E, size: 0x8, addend: 0x0, symName: __ZNSt3__19allocatorIN2sf7Vector2IfEEE10deallocateB7v160006EPS3_m, symObjAddr: 0xB910, symBinAddr: 0x1000144F0, symSize: 0x40 }
  - { offsetInCU: 0x222C9, offset: 0x51860, size: 0x8, addend: 0x0, symName: __ZNK13CasePropriete21createPopUpComponentsERN2sf7TextureERNS0_6SpriteES2_S4_S2_S4_S2_S4_S2_S4_S2_S4_S2_S4_S2_S4_S2_S4_S2_S4_, symObjAddr: 0xB950, symBinAddr: 0x100014530, symSize: 0x730 }
  - { offsetInCU: 0x22410, offset: 0x519A7, size: 0x8, addend: 0x0, symName: __ZNK13CasePropriete10checkachatER6JoueurRN2sf12RenderWindowENSt3__16vectorINS2_7Vector2IfEENS5_9allocatorIS8_EEEERiSC_SC_SC_SC_SC_RbRNS2_6SpriteESF_SF_SF_SF_SF_SF_SF_S4_SF_SF_RNS2_7TextureESH_SH_SH_SH_SH_SH_SH_RNS2_4TextESJ_SJ_SJ_SJ_SJ_, symObjAddr: 0xC080, symBinAddr: 0x100014C60, symSize: 0x1100 }
  - { offsetInCU: 0x226E4, offset: 0x51C7B, size: 0x8, addend: 0x0, symName: __ZNK13CasePropriete13afficherPopUpERN2sf12RenderWindowERNS0_6SpriteES4_PKS3_RS5_S7_, symObjAddr: 0xD2B0, symBinAddr: 0x100015D60, symSize: 0xD0 }
  - { offsetInCU: 0x2277B, offset: 0x51D12, size: 0x8, addend: 0x0, symName: __ZN2sf6SpriteC1ERKS0_, symObjAddr: 0xD380, symBinAddr: 0x100015E30, symSize: 0x30 }
  - { offsetInCU: 0x227B0, offset: 0x51D47, size: 0x8, addend: 0x0, symName: __ZNK13CasePropriete10createTextERN2sf4TextEiff, symObjAddr: 0xD3B0, symBinAddr: 0x100015E60, symSize: 0x110 }
  - { offsetInCU: 0x2280E, offset: 0x51DA5, size: 0x8, addend: 0x0, symName: __ZNK13CasePropriete12affichetexteERN2sf12RenderWindowERNS0_4TextES4_S4_S4_S4_S4_, symObjAddr: 0xD4C0, symBinAddr: 0x100015F70, symSize: 0xD0 }
  - { offsetInCU: 0x22896, offset: 0x51E2D, size: 0x8, addend: 0x0, symName: __ZN2sf6SpriteC2ERKS0_, symObjAddr: 0xD6C0, symBinAddr: 0x100016040, symSize: 0x80 }
  - { offsetInCU: 0x228CB, offset: 0x51E62, size: 0x8, addend: 0x0, symName: __ZN2sf8DrawableC2ERKS0_, symObjAddr: 0xD740, symBinAddr: 0x1000160C0, symSize: 0x20 }
  - { offsetInCU: 0x22905, offset: 0x51E9C, size: 0x8, addend: 0x0, symName: __ZN2sf13TransformableC2ERKS0_, symObjAddr: 0xD760, symBinAddr: 0x1000160E0, symSize: 0x40 }
  - { offsetInCU: 0x2293A, offset: 0x51ED1, size: 0x8, addend: 0x0, symName: __ZN2sf8DrawableD1Ev, symObjAddr: 0xD7A0, symBinAddr: 0x100016120, symSize: 0x10 }
  - { offsetInCU: 0x22964, offset: 0x51EFB, size: 0x8, addend: 0x0, symName: __ZN2sf8DrawableD0Ev, symObjAddr: 0xD7B0, symBinAddr: 0x100016130, symSize: 0x10 }
  - { offsetInCU: 0x2298E, offset: 0x51F25, size: 0x8, addend: 0x0, symName: __ZNK13CasePropriete16handlePptsJoueurERN2sf12RenderWindowERNS0_6SpriteES4_R6JoueurRb, symObjAddr: 0xD840, symBinAddr: 0x1000161C0, symSize: 0x700 }
  - { offsetInCU: 0x22A7D, offset: 0x52014, size: 0x8, addend: 0x0, symName: __ZNK13CasePropriete7setEtatEb, symObjAddr: 0xDF40, symBinAddr: 0x1000168C0, symSize: 0x20 }
  - { offsetInCU: 0x22AB1, offset: 0x52048, size: 0x8, addend: 0x0, symName: __ZNSt3__16vectorIiNS_9allocatorIiEEE9push_backB7v160006EOi, symObjAddr: 0xDF60, symBinAddr: 0x1000168E0, symSize: 0x60 }
  - { offsetInCU: 0x22AE8, offset: 0x5207F, size: 0x8, addend: 0x0, symName: __ZN6Joueur16setCasesAcheteesENSt3__16vectorIiNS0_9allocatorIiEEEE, symObjAddr: 0xDFC0, symBinAddr: 0x100016940, symSize: 0x30 }
  - { offsetInCU: 0x22B1D, offset: 0x520B4, size: 0x8, addend: 0x0, symName: __ZNK4Pion14getCheminImageEv, symObjAddr: 0xE090, symBinAddr: 0x100016970, symSize: 0x20 }
  - { offsetInCU: 0x22B43, offset: 0x520DA, size: 0x8, addend: 0x0, symName: __ZNK4Pion11getPositionEv, symObjAddr: 0xE0B0, symBinAddr: 0x100016990, symSize: 0x20 }
  - { offsetInCU: 0x22B69, offset: 0x52100, size: 0x8, addend: 0x0, symName: __ZNSt3__16vectorIiNS_9allocatorIiEEE22__construct_one_at_endB7v160006IJiEEEvDpOT_, symObjAddr: 0xE0D0, symBinAddr: 0x1000169B0, symSize: 0x90 }
  - { offsetInCU: 0x22BB8, offset: 0x5214F, size: 0x8, addend: 0x0, symName: __ZNSt3__16vectorIiNS_9allocatorIiEEE21__push_back_slow_pathIiEEvOT_, symObjAddr: 0xE160, symBinAddr: 0x100016A40, symSize: 0xD0 }
  - { offsetInCU: 0x22C16, offset: 0x521AD, size: 0x8, addend: 0x0, symName: __ZNSt3__116allocator_traitsINS_9allocatorIiEEE9constructB7v160006IiJiEvEEvRS2_PT_DpOT0_, symObjAddr: 0xE230, symBinAddr: 0x100016B10, symSize: 0x30 }
  - { offsetInCU: 0x22C6D, offset: 0x52204, size: 0x8, addend: 0x0, symName: __ZNSt3__19allocatorIiE9constructB7v160006IiJiEEEvPT_DpOT0_, symObjAddr: 0xE260, symBinAddr: 0x100016B40, symSize: 0x20 }
  - { offsetInCU: 0x22CC3, offset: 0x5225A, size: 0x8, addend: 0x0, symName: __ZNKSt3__16vectorIiNS_9allocatorIiEEE11__recommendB7v160006Em, symObjAddr: 0xE280, symBinAddr: 0x100016B60, symSize: 0xA0 }
  - { offsetInCU: 0x22D18, offset: 0x522AF, size: 0x8, addend: 0x0, symName: __ZNSt3__114__split_bufferIiRNS_9allocatorIiEEEC1EmmS3_, symObjAddr: 0xE320, symBinAddr: 0x100016C00, symSize: 0x40 }
  - { offsetInCU: 0x22D6E, offset: 0x52305, size: 0x8, addend: 0x0, symName: __ZNSt3__114__split_bufferIiRNS_9allocatorIiEEED1Ev, symObjAddr: 0xE490, symBinAddr: 0x100016D70, symSize: 0x20 }
  - { offsetInCU: 0x22D9A, offset: 0x52331, size: 0x8, addend: 0x0, symName: __ZNSt3__114__split_bufferIiRNS_9allocatorIiEEEC2EmmS3_, symObjAddr: 0xE4B0, symBinAddr: 0x100016D90, symSize: 0xD0 }
  - { offsetInCU: 0x22E0D, offset: 0x523A4, size: 0x8, addend: 0x0, symName: __ZNSt3__117__compressed_pairIPiRNS_9allocatorIiEEEC1B7v160006IDnS4_EEOT_OT0_, symObjAddr: 0xE580, symBinAddr: 0x100016E60, symSize: 0x30 }
  - { offsetInCU: 0x22E65, offset: 0x523FC, size: 0x8, addend: 0x0, symName: __ZNSt3__114__split_bufferIiRNS_9allocatorIiEEE7__allocB7v160006Ev, symObjAddr: 0xE5B0, symBinAddr: 0x100016E90, symSize: 0x20 }
  - { offsetInCU: 0x22E8B, offset: 0x52422, size: 0x8, addend: 0x0, symName: __ZNSt3__114__split_bufferIiRNS_9allocatorIiEEE9__end_capB7v160006Ev, symObjAddr: 0xE5D0, symBinAddr: 0x100016EB0, symSize: 0x20 }
  - { offsetInCU: 0x22EB1, offset: 0x52448, size: 0x8, addend: 0x0, symName: __ZNSt3__117__compressed_pairIPiRNS_9allocatorIiEEEC2B7v160006IDnS4_EEOT_OT0_, symObjAddr: 0xE5F0, symBinAddr: 0x100016ED0, symSize: 0x40 }
  - { offsetInCU: 0x22F09, offset: 0x524A0, size: 0x8, addend: 0x0, symName: __ZNSt3__122__compressed_pair_elemIRNS_9allocatorIiEELi1ELb0EEC2B7v160006IS3_vEEOT_, symObjAddr: 0xE630, symBinAddr: 0x100016F10, symSize: 0x20 }
  - { offsetInCU: 0x22F4B, offset: 0x524E2, size: 0x8, addend: 0x0, symName: __ZNSt3__117__compressed_pairIPiRNS_9allocatorIiEEE6secondB7v160006Ev, symObjAddr: 0xE650, symBinAddr: 0x100016F30, symSize: 0x20 }
  - { offsetInCU: 0x22F71, offset: 0x52508, size: 0x8, addend: 0x0, symName: __ZNSt3__122__compressed_pair_elemIRNS_9allocatorIiEELi1ELb0EE5__getB7v160006Ev, symObjAddr: 0xE670, symBinAddr: 0x100016F50, symSize: 0x20 }
  - { offsetInCU: 0x22F97, offset: 0x5252E, size: 0x8, addend: 0x0, symName: __ZNSt3__117__compressed_pairIPiRNS_9allocatorIiEEE5firstB7v160006Ev, symObjAddr: 0xE690, symBinAddr: 0x100016F70, symSize: 0x20 }
  - { offsetInCU: 0x22FD6, offset: 0x5256D, size: 0x8, addend: 0x0, symName: __ZNKSt3__111__move_loopINS_17_ClassicAlgPolicyEEclB7v160006INS_16reverse_iteratorIPiEES6_S6_EENS_4pairIT_T1_EES8_T0_S9_, symObjAddr: 0xEBB0, symBinAddr: 0x100017490, symSize: 0xA0 }
  - { offsetInCU: 0x23041, offset: 0x525D8, size: 0x8, addend: 0x0, symName: __ZNSt3__18_IterOpsINS_17_ClassicAlgPolicyEE11__iter_moveB7v160006IRNS_16reverse_iteratorIPiEEEENS_9enable_ifIXsr12is_referenceIDTdeclsr3stdE7declvalIRT_EEEEE5valueEDTclsr3stdE4movedeclsr3stdE7declvalISA_EEEEE4typeEOS9_, symObjAddr: 0xED90, symBinAddr: 0x100017670, symSize: 0x20 }
  - { offsetInCU: 0x2306D, offset: 0x52604, size: 0x8, addend: 0x0, symName: __ZNSt3__18_IterOpsINS_17_ClassicAlgPolicyEE25__validate_iter_referenceB7v160006IRNS_16reverse_iteratorIPiEEEEvv, symObjAddr: 0xEDB0, symBinAddr: 0x100017690, symSize: 0x10 }
  - { offsetInCU: 0x2308B, offset: 0x52622, size: 0x8, addend: 0x0, symName: __ZNSt3__118__unwrap_iter_implINS_16reverse_iteratorIPiEELb0EE8__unwrapB7v160006ES3_, symObjAddr: 0xEDC0, symBinAddr: 0x1000176A0, symSize: 0x20 }
  - { offsetInCU: 0x230B3, offset: 0x5264A, size: 0x8, addend: 0x0, symName: __ZNSt3__14pairINS_16reverse_iteratorIPiEES3_EC1B7v160006IS3_S3_LPv0EEEOT_OT0_, symObjAddr: 0xEDE0, symBinAddr: 0x1000176C0, symSize: 0x30 }
  - { offsetInCU: 0x23111, offset: 0x526A8, size: 0x8, addend: 0x0, symName: __ZNSt3__14pairINS_16reverse_iteratorIPiEES3_EC2B7v160006IS3_S3_LPv0EEEOT_OT0_, symObjAddr: 0xEE10, symBinAddr: 0x1000176F0, symSize: 0x40 }
  - { offsetInCU: 0x2316F, offset: 0x52706, size: 0x8, addend: 0x0, symName: __ZNSt3__118__unwrap_iter_implINS_16reverse_iteratorIPiEELb0EE8__rewrapB7v160006ES3_S3_, symObjAddr: 0xEE50, symBinAddr: 0x100017730, symSize: 0x30 }
  - { offsetInCU: 0x2319D, offset: 0x52734, size: 0x8, addend: 0x0, symName: __ZNSt3__114__split_bufferIiRNS_9allocatorIiEEED2Ev, symObjAddr: 0xEE80, symBinAddr: 0x100017760, symSize: 0x70 }
  - { offsetInCU: 0x231C9, offset: 0x52760, size: 0x8, addend: 0x0, symName: __ZNSt3__114__split_bufferIiRNS_9allocatorIiEEE5clearB7v160006Ev, symObjAddr: 0xEEF0, symBinAddr: 0x1000177D0, symSize: 0x20 }
  - { offsetInCU: 0x231EF, offset: 0x52786, size: 0x8, addend: 0x0, symName: __ZNKSt3__114__split_bufferIiRNS_9allocatorIiEEE8capacityB7v160006Ev, symObjAddr: 0xEF10, symBinAddr: 0x1000177F0, symSize: 0x30 }
  - { offsetInCU: 0x23215, offset: 0x527AC, size: 0x8, addend: 0x0, symName: __ZNSt3__114__split_bufferIiRNS_9allocatorIiEEE17__destruct_at_endB7v160006EPi, symObjAddr: 0xEF40, symBinAddr: 0x100017820, symSize: 0x30 }
  - { offsetInCU: 0x23249, offset: 0x527E0, size: 0x8, addend: 0x0, symName: __ZNSt3__114__split_bufferIiRNS_9allocatorIiEEE17__destruct_at_endB7v160006EPiNS_17integral_constantIbLb0EEE, symObjAddr: 0xEF70, symBinAddr: 0x100017850, symSize: 0x80 }
  - { offsetInCU: 0x2328A, offset: 0x52821, size: 0x8, addend: 0x0, symName: __ZNKSt3__114__split_bufferIiRNS_9allocatorIiEEE9__end_capB7v160006Ev, symObjAddr: 0xEFF0, symBinAddr: 0x1000178D0, symSize: 0x20 }
  - { offsetInCU: 0x232B0, offset: 0x52847, size: 0x8, addend: 0x0, symName: __ZNKSt3__117__compressed_pairIPiRNS_9allocatorIiEEE5firstB7v160006Ev, symObjAddr: 0xF010, symBinAddr: 0x1000178F0, symSize: 0x20 }
  - { offsetInCU: 0x232D6, offset: 0x5286D, size: 0x8, addend: 0x0, symName: __ZNSt3__16vectorIiNS_9allocatorIiEEEaSB7v160006ERKS3_, symObjAddr: 0xF030, symBinAddr: 0x100017910, symSize: 0x60 }
  - { offsetInCU: 0x2330D, offset: 0x528A4, size: 0x8, addend: 0x0, symName: __ZNSt3__16vectorIiNS_9allocatorIiEEE19__copy_assign_allocB7v160006ERKS3_, symObjAddr: 0xF090, symBinAddr: 0x100017970, symSize: 0x30 }
  - { offsetInCU: 0x23342, offset: 0x528D9, size: 0x8, addend: 0x0, symName: __ZNSt3__16vectorIiNS_9allocatorIiEEE6assignIPiLi0EEEvT_S6_, symObjAddr: 0xF0C0, symBinAddr: 0x1000179A0, symSize: 0x160 }
  - { offsetInCU: 0x233E1, offset: 0x52978, size: 0x8, addend: 0x0, symName: __ZNSt3__16vectorIiNS_9allocatorIiEEE19__copy_assign_allocB7v160006ERKS3_NS_17integral_constantIbLb0EEE, symObjAddr: 0xF220, symBinAddr: 0x100017B00, symSize: 0x10 }
  - { offsetInCU: 0x2341F, offset: 0x529B6, size: 0x8, addend: 0x0, symName: __ZNSt3__16vectorIiNS_9allocatorIiEEE17__destruct_at_endB7v160006EPi, symObjAddr: 0xF2F0, symBinAddr: 0x100017BD0, symSize: 0x60 }
  - { offsetInCU: 0x23463, offset: 0x529FA, size: 0x8, addend: 0x0, symName: __ZNSt3__16vectorIiNS_9allocatorIiEEE13__vdeallocateEv, symObjAddr: 0xF350, symBinAddr: 0x100017C30, symSize: 0x80 }
  - { offsetInCU: 0x234AE, offset: 0x52A45, size: 0x8, addend: 0x0, symName: __ZNKSt3__114__copy_trivialclB7v160006IiiLi0EEENS_4pairIPT_PT0_EES4_S4_S6_, symObjAddr: 0xF5A0, symBinAddr: 0x100017E80, symSize: 0x40 }
  - { offsetInCU: 0x2351B, offset: 0x52AB2, size: 0x8, addend: 0x0, symName: __ZNSt3__14pairIPiS1_EC1B7v160006IRS1_S1_LPv0EEEOT_OT0_, symObjAddr: 0xF740, symBinAddr: 0x100018020, symSize: 0x30 }
  - { offsetInCU: 0x23579, offset: 0x52B10, size: 0x8, addend: 0x0, symName: __ZNSt3__14pairIPiS1_EC2B7v160006IRS1_S1_LPv0EEEOT_OT0_, symObjAddr: 0xF770, symBinAddr: 0x100018050, symSize: 0x30 }
  - { offsetInCU: 0x235D7, offset: 0x52B6E, size: 0x8, addend: 0x0, symName: __ZNSt3__118__unwrap_iter_implIPiLb1EE8__unwrapB7v160006ES1_, symObjAddr: 0xF7A0, symBinAddr: 0x100018080, symSize: 0x20 }
  - { offsetInCU: 0x235FA, offset: 0x52B91, size: 0x8, addend: 0x0, symName: __ZNSt3__14pairIPiS1_EC1B7v160006IS1_S1_LPv0EEEOT_OT0_, symObjAddr: 0xF7C0, symBinAddr: 0x1000180A0, symSize: 0x30 }
  - { offsetInCU: 0x23658, offset: 0x52BEF, size: 0x8, addend: 0x0, symName: __ZNSt3__14pairIPiS1_EC2B7v160006IS1_S1_LPv0EEEOT_OT0_, symObjAddr: 0xF7F0, symBinAddr: 0x1000180D0, symSize: 0x30 }
  - { offsetInCU: 0x236B6, offset: 0x52C4D, size: 0x8, addend: 0x0, symName: __ZNSt3__118__unwrap_iter_implIPiLb1EE8__rewrapB7v160006ES1_S1_, symObjAddr: 0xF820, symBinAddr: 0x100018100, symSize: 0x50 }
  - { offsetInCU: 0x236E7, offset: 0x52C7E, size: 0x8, addend: 0x0, symName: __ZNSt3__16vectorIiNS_9allocatorIiEEE27__invalidate_iterators_pastB7v160006EPi, symObjAddr: 0xF870, symBinAddr: 0x100018150, symSize: 0x10 }
  - { offsetInCU: 0x2371E, offset: 0x52CB5, size: 0x8, addend: 0x0, symName: __ZNKSt3__16vectorIiNS_9allocatorIiEEE17__annotate_shrinkB7v160006Em, symObjAddr: 0xF880, symBinAddr: 0x100018160, symSize: 0xA0 }
  - { offsetInCU: 0x23753, offset: 0x52CEA, size: 0x8, addend: 0x0, symName: __ZNSt3__16vectorIiNS_9allocatorIiEEE5clearB7v160006Ev, symObjAddr: 0xF920, symBinAddr: 0x100018200, symSize: 0x50 }
  - { offsetInCU: 0x23788, offset: 0x52D1F, size: 0x8, addend: 0x0, symName: __ZN13CaseProprieteD2Ev, symObjAddr: 0xFA80, symBinAddr: 0x100018250, symSize: 0x20 }
  - { offsetInCU: 0x237B4, offset: 0x52D4B, size: 0x8, addend: 0x0, symName: __ZN11CasePayanteD2Ev, symObjAddr: 0xFAA0, symBinAddr: 0x100018270, symSize: 0x20 }
  - { offsetInCU: 0x23A14, offset: 0x52FAB, size: 0x8, addend: 0x0, symName: __ZN8CaseQuizC1Ei, symObjAddr: 0xFAC0, symBinAddr: 0x100018290, symSize: 0x30 }
  - { offsetInCU: 0x23A4C, offset: 0x52FE3, size: 0x8, addend: 0x0, symName: __ZN8CaseQuizC2Ei, symObjAddr: 0xFAF0, symBinAddr: 0x1000182C0, symSize: 0x40 }
  - { offsetInCU: 0x23A84, offset: 0x5301B, size: 0x8, addend: 0x0, symName: __ZNK8CaseQuiz6actionER6JoueurRN2sf12RenderWindowENSt3__16vectorINS2_7Vector2IfEENS5_9allocatorIS8_EEEE, symObjAddr: 0xFB30, symBinAddr: 0x100018300, symSize: 0x460 }
  - { offsetInCU: 0x23B0B, offset: 0x530A2, size: 0x8, addend: 0x0, symName: __ZN8CaseQuizD1Ev, symObjAddr: 0xFF90, symBinAddr: 0x100018760, symSize: 0x20 }
  - { offsetInCU: 0x23B37, offset: 0x530CE, size: 0x8, addend: 0x0, symName: __ZN8CaseQuizD0Ev, symObjAddr: 0xFFB0, symBinAddr: 0x100018780, symSize: 0x30 }
  - { offsetInCU: 0x23B63, offset: 0x530FA, size: 0x8, addend: 0x0, symName: __ZNK6Joueur20getCarteDispenseQuizEv, symObjAddr: 0xFFE0, symBinAddr: 0x1000187B0, symSize: 0x20 }
  - { offsetInCU: 0x23B89, offset: 0x53120, size: 0x8, addend: 0x0, symName: __ZN6Joueur20setCarteDispenseQuizEb, symObjAddr: 0x10000, symBinAddr: 0x1000187D0, symSize: 0x20 }
  - { offsetInCU: 0x23BBD, offset: 0x53154, size: 0x8, addend: 0x0, symName: __ZNK8CaseQuiz14actionCaseQuizEiR6JoueurRN2sf12RenderWindowENSt3__16vectorINS2_7Vector2IfEENS5_9allocatorIS8_EEEE, symObjAddr: 0x10020, symBinAddr: 0x1000187F0, symSize: 0x980 }
  - { offsetInCU: 0x23CFA, offset: 0x53291, size: 0x8, addend: 0x0, symName: __ZNK8CaseQuiz17initializeSpritesERN2sf12RenderWindowERNS0_6SpriteES4_S4_S4_S4_RNS0_7TextureES6_S6_S6_S6_, symObjAddr: 0x109A0, symBinAddr: 0x100019170, symSize: 0x500 }
  - { offsetInCU: 0x23DBA, offset: 0x53351, size: 0x8, addend: 0x0, symName: __ZNK8CaseQuiz10drawspriteERN2sf12RenderWindowERNS0_6SpriteES4_S4_S4_S4_, symObjAddr: 0x10EA0, symBinAddr: 0x100019670, symSize: 0xB0 }
  - { offsetInCU: 0x23E34, offset: 0x533CB, size: 0x8, addend: 0x0, symName: __ZNK8CaseQuiz7reponseEi, symObjAddr: 0x10F50, symBinAddr: 0x100019720, symSize: 0x160 }
  - { offsetInCU: 0x23E68, offset: 0x533FF, size: 0x8, addend: 0x0, symName: __ZNK8CaseQuiz17simulateBotAnswerERN2sf12RenderWindowERKNS0_6SpriteES5_S5_S5_S5_R6JoueurNSt3__112basic_stringIcNS8_11char_traitsIcEENS8_9allocatorIcEEEE, symObjAddr: 0x110B0, symBinAddr: 0x100019880, symSize: 0x2B0 }
  - { offsetInCU: 0x23F1E, offset: 0x534B5, size: 0x8, addend: 0x0, symName: __ZNK8CaseQuiz16handleMouseClickERN2sf12RenderWindowEffRKNS0_6SpriteES5_S5_S5_R6JoueurNSt3__112basic_stringIcNS8_11char_traitsIcEENS8_9allocatorIcEEEE, symObjAddr: 0x11360, symBinAddr: 0x100019B30, symSize: 0x4F0 }
  - { offsetInCU: 0x23FC3, offset: 0x5355A, size: 0x8, addend: 0x0, symName: __ZNK8CaseQuiz16initializeSpriteERN2sf6SpriteERKNS0_7Vector2IfEES6_S6_, symObjAddr: 0x11850, symBinAddr: 0x10001A020, symSize: 0x70 }
  - { offsetInCU: 0x24021, offset: 0x535B8, size: 0x8, addend: 0x0, symName: __ZNSt3__112basic_stringIcNS_11char_traitsIcEENS_9allocatorIcEEEC1B7v160006Ev, symObjAddr: 0x118C0, symBinAddr: 0x10001A090, symSize: 0x20 }
  - { offsetInCU: 0x2404B, offset: 0x535E2, size: 0x8, addend: 0x0, symName: __ZNSt3__112basic_stringIcNS_11char_traitsIcEENS_9allocatorIcEEEaSB7v160006EPKc, symObjAddr: 0x118E0, symBinAddr: 0x10001A0B0, symSize: 0x30 }
  - { offsetInCU: 0x24080, offset: 0x53617, size: 0x8, addend: 0x0, symName: __ZNSt3__112basic_stringIcNS_11char_traitsIcEENS_9allocatorIcEEEC2B7v160006Ev, symObjAddr: 0x11A20, symBinAddr: 0x10001A1F0, symSize: 0x50 }
  - { offsetInCU: 0x240AA, offset: 0x53641, size: 0x8, addend: 0x0, symName: __ZNKSt3__112basic_stringIcNS_11char_traitsIcEENS_9allocatorIcEEE4dataB7v160006Ev, symObjAddr: 0x11AC0, symBinAddr: 0x10001A240, symSize: 0x30 }
  - { offsetInCU: 0x240D0, offset: 0x53667, size: 0x8, addend: 0x0, symName: __ZNSt3__111char_traitsIcE7compareEPKcS3_m, symObjAddr: 0x11AF0, symBinAddr: 0x10001A270, symSize: 0x60 }
  - { offsetInCU: 0x2410F, offset: 0x536A6, size: 0x8, addend: 0x0, symName: __ZNKSt3__112basic_stringIcNS_11char_traitsIcEENS_9allocatorIcEEE13__get_pointerB7v160006Ev, symObjAddr: 0x11BB0, symBinAddr: 0x10001A2E0, symSize: 0x50 }
  - { offsetInCU: 0x24135, offset: 0x536CC, size: 0x8, addend: 0x0, symName: __ZNKSt3__112basic_stringIcNS_11char_traitsIcEENS_9allocatorIcEEE18__get_long_pointerB7v160006Ev, symObjAddr: 0x11C00, symBinAddr: 0x10001A330, symSize: 0x20 }
  - { offsetInCU: 0x2415B, offset: 0x536F2, size: 0x8, addend: 0x0, symName: __ZNKSt3__112basic_stringIcNS_11char_traitsIcEENS_9allocatorIcEEE19__get_short_pointerB7v160006Ev, symObjAddr: 0x11C20, symBinAddr: 0x10001A350, symSize: 0x30 }
  - { offsetInCU: 0x24181, offset: 0x53718, size: 0x8, addend: 0x0, symName: __ZNSt3__114pointer_traitsIPKcE10pointer_toB7v160006ERS1_, symObjAddr: 0x11C50, symBinAddr: 0x10001A380, symSize: 0x10 }
  - { offsetInCU: 0x241A4, offset: 0x5373B, size: 0x8, addend: 0x0, symName: __ZNK8CaseQuiz14handleResponseERN2sf12RenderWindowERKNS0_6SpriteER6JoueurNSt3__112basic_stringIcNS8_11char_traitsIcEENS8_9allocatorIcEEEESE_, symObjAddr: 0x11C90, symBinAddr: 0x10001A3C0, symSize: 0x110 }
  - { offsetInCU: 0x24212, offset: 0x537A9, size: 0x8, addend: 0x0, symName: __ZNK8CaseQuiz19animateBonneReponseERN2sf12RenderWindowER6Joueur, symObjAddr: 0x11DA0, symBinAddr: 0x10001A4D0, symSize: 0x7C0 }
  - { offsetInCU: 0x242CA, offset: 0x53861, size: 0x8, addend: 0x0, symName: __ZNK8CaseQuiz22animateMauvaiseReponseERN2sf12RenderWindowER6Joueur, symObjAddr: 0x12560, symBinAddr: 0x10001AC90, symSize: 0x7C0 }
  - { offsetInCU: 0x24382, offset: 0x53919, size: 0x8, addend: 0x0, symName: __ZN8CaseQuizD2Ev, symObjAddr: 0x12D20, symBinAddr: 0x10001B450, symSize: 0x20 }
  - { offsetInCU: 0x24458, offset: 0x539EF, size: 0x8, addend: 0x0, symName: __ZN8CaseTaxeC1Eii, symObjAddr: 0x12D40, symBinAddr: 0x10001B470, symSize: 0x30 }
  - { offsetInCU: 0x2449E, offset: 0x53A35, size: 0x8, addend: 0x0, symName: __ZN8CaseTaxeC2Eii, symObjAddr: 0x12D70, symBinAddr: 0x10001B4A0, symSize: 0x40 }
  - { offsetInCU: 0x244E4, offset: 0x53A7B, size: 0x8, addend: 0x0, symName: __ZNK8CaseTaxe6actionER6JoueurRN2sf12RenderWindowENSt3__16vectorINS2_7Vector2IfEENS5_9allocatorIS8_EEEE, symObjAddr: 0x12DB0, symBinAddr: 0x10001B4E0, symSize: 0x70 }
  - { offsetInCU: 0x24535, offset: 0x53ACC, size: 0x8, addend: 0x0, symName: __ZN8CaseTaxeD1Ev, symObjAddr: 0x12E20, symBinAddr: 0x10001B550, symSize: 0x20 }
  - { offsetInCU: 0x24561, offset: 0x53AF8, size: 0x8, addend: 0x0, symName: __ZN8CaseTaxeD0Ev, symObjAddr: 0x12E40, symBinAddr: 0x10001B570, symSize: 0x30 }
  - { offsetInCU: 0x2458D, offset: 0x53B24, size: 0x8, addend: 0x0, symName: __ZN8CaseTaxeD2Ev, symObjAddr: 0x12E70, symBinAddr: 0x10001B5A0, symSize: 0x20 }
  - { offsetInCU: 0x2462D, offset: 0x53BC4, size: 0x8, addend: 0x0, symName: __ZN11CaseNormaleC1Ei, symObjAddr: 0x12E90, symBinAddr: 0x10001B5C0, symSize: 0x30 }
  - { offsetInCU: 0x24665, offset: 0x53BFC, size: 0x8, addend: 0x0, symName: __ZN11CaseNormaleC2Ei, symObjAddr: 0x12EC0, symBinAddr: 0x10001B5F0, symSize: 0x40 }
  - { offsetInCU: 0x2469D, offset: 0x53C34, size: 0x8, addend: 0x0, symName: __ZNK11CaseNormale6actionER6JoueurRN2sf12RenderWindowENSt3__16vectorINS2_7Vector2IfEENS5_9allocatorIS8_EEEE, symObjAddr: 0x12F00, symBinAddr: 0x10001B630, symSize: 0x70 }
  - { offsetInCU: 0x246EE, offset: 0x53C85, size: 0x8, addend: 0x0, symName: __ZN11CaseNormaleD1Ev, symObjAddr: 0x12F70, symBinAddr: 0x10001B6A0, symSize: 0x20 }
  - { offsetInCU: 0x2471A, offset: 0x53CB1, size: 0x8, addend: 0x0, symName: __ZN11CaseNormaleD0Ev, symObjAddr: 0x12F90, symBinAddr: 0x10001B6C0, symSize: 0x30 }
  - { offsetInCU: 0x24746, offset: 0x53CDD, size: 0x8, addend: 0x0, symName: __ZN11CaseNormaleD2Ev, symObjAddr: 0x12FC0, symBinAddr: 0x10001B6F0, symSize: 0x20 }
  - { offsetInCU: 0x2480C, offset: 0x53DA3, size: 0x8, addend: 0x0, symName: __ZN10CaseChanceC1Ei, symObjAddr: 0x12FE0, symBinAddr: 0x10001B710, symSize: 0x30 }
  - { offsetInCU: 0x24844, offset: 0x53DDB, size: 0x8, addend: 0x0, symName: __ZN10CaseChanceC2Ei, symObjAddr: 0x13010, symBinAddr: 0x10001B740, symSize: 0x40 }
  - { offsetInCU: 0x2487C, offset: 0x53E13, size: 0x8, addend: 0x0, symName: __ZNK10CaseChance6actionER6JoueurRN2sf12RenderWindowENSt3__16vectorINS2_7Vector2IfEENS5_9allocatorIS8_EEEE, symObjAddr: 0x13050, symBinAddr: 0x10001B780, symSize: 0x3E0 }
  - { offsetInCU: 0x2490B, offset: 0x53EA2, size: 0x8, addend: 0x0, symName: __ZN10CaseChanceD1Ev, symObjAddr: 0x13430, symBinAddr: 0x10001BB60, symSize: 0x20 }
  - { offsetInCU: 0x24937, offset: 0x53ECE, size: 0x8, addend: 0x0, symName: __ZN10CaseChanceD0Ev, symObjAddr: 0x13450, symBinAddr: 0x10001BB80, symSize: 0x30 }
  - { offsetInCU: 0x24963, offset: 0x53EFA, size: 0x8, addend: 0x0, symName: __ZNK10CaseChance16actionCaseChanceEiR6JoueurRN2sf12RenderWindowERKNSt3__16vectorINS2_7Vector2IfEENS5_9allocatorIS8_EEEE, symObjAddr: 0x13480, symBinAddr: 0x10001BBB0, symSize: 0x400 }
  - { offsetInCU: 0x249C1, offset: 0x53F58, size: 0x8, addend: 0x0, symName: __ZN6Joueur22setCarteOuvertureVilleEb, symObjAddr: 0x13880, symBinAddr: 0x10001BFB0, symSize: 0x20 }
  - { offsetInCU: 0x249F5, offset: 0x53F8C, size: 0x8, addend: 0x0, symName: __ZNKSt3__16vectorIN2sf7Vector2IfEENS_9allocatorIS3_EEEixB7v160006Em, symObjAddr: 0x138A0, symBinAddr: 0x10001BFD0, symSize: 0x20 }
  - { offsetInCU: 0x24A2C, offset: 0x53FC3, size: 0x8, addend: 0x0, symName: __ZN4Pion6setPosEi, symObjAddr: 0x138E0, symBinAddr: 0x10001BFF0, symSize: 0x20 }
  - { offsetInCU: 0x24A60, offset: 0x53FF7, size: 0x8, addend: 0x0, symName: __ZN10CaseChanceD2Ev, symObjAddr: 0x13900, symBinAddr: 0x10001C010, symSize: 0x20 }
  - { offsetInCU: 0x24C2D, offset: 0x541C4, size: 0x8, addend: 0x0, symName: __ZN17CaseServicePublicC1EiibNSt3__112basic_stringIcNS0_11char_traitsIcEENS0_9allocatorIcEEEE, symObjAddr: 0x13920, symBinAddr: 0x10001C030, symSize: 0x40 }
  - { offsetInCU: 0x24C90, offset: 0x54227, size: 0x8, addend: 0x0, symName: __ZN17CaseServicePublicC2EiibNSt3__112basic_stringIcNS0_11char_traitsIcEENS0_9allocatorIcEEEE, symObjAddr: 0x13960, symBinAddr: 0x10001C070, symSize: 0x90 }
  - { offsetInCU: 0x24CF3, offset: 0x5428A, size: 0x8, addend: 0x0, symName: __ZNK17CaseServicePublic6actionER6JoueurRN2sf12RenderWindowENSt3__16vectorINS2_7Vector2IfEENS5_9allocatorIS8_EEEE, symObjAddr: 0x139F0, symBinAddr: 0x10001C100, symSize: 0x960 }
  - { offsetInCU: 0x24DDA, offset: 0x54371, size: 0x8, addend: 0x0, symName: __ZNK17CaseServicePublic7getCoutEv, symObjAddr: 0x14350, symBinAddr: 0x10001CA60, symSize: 0x20 }
  - { offsetInCU: 0x24E00, offset: 0x54397, size: 0x8, addend: 0x0, symName: __ZNK17CaseServicePublic9actionbotER6JoueurRN2sf12RenderWindowENSt3__16vectorINS2_7Vector2IfEENS5_9allocatorIS8_EEEEii, symObjAddr: 0x14370, symBinAddr: 0x10001CA80, symSize: 0x1A0 }
  - { offsetInCU: 0x24E83, offset: 0x5441A, size: 0x8, addend: 0x0, symName: __ZN17CaseServicePublicD1Ev, symObjAddr: 0x14510, symBinAddr: 0x10001CC20, symSize: 0x20 }
  - { offsetInCU: 0x24EAF, offset: 0x54446, size: 0x8, addend: 0x0, symName: __ZN17CaseServicePublicD0Ev, symObjAddr: 0x14530, symBinAddr: 0x10001CC40, symSize: 0x30 }
  - { offsetInCU: 0x24EDB, offset: 0x54472, size: 0x8, addend: 0x0, symName: __ZNK17CaseServicePublic12findpositionEiR6Joueur, symObjAddr: 0x14560, symBinAddr: 0x10001CC70, symSize: 0xC0 }
  - { offsetInCU: 0x24F3A, offset: 0x544D1, size: 0x8, addend: 0x0, symName: __ZNK17CaseServicePublic16initializeSpriteERN2sf6SpriteERKNS0_7Vector2IfEES6_, symObjAddr: 0x14620, symBinAddr: 0x10001CD30, symSize: 0xC0 }
  - { offsetInCU: 0x24F8A, offset: 0x54521, size: 0x8, addend: 0x0, symName: __ZNK17CaseServicePublic21waitForPlayerResponseERN2sf12RenderWindowERNS0_6SpriteES4_R6Joueur, symObjAddr: 0x146E0, symBinAddr: 0x10001CDF0, symSize: 0x380 }
  - { offsetInCU: 0x25051, offset: 0x545E8, size: 0x8, addend: 0x0, symName: __ZNSt3__16vectorIiNS_9allocatorIiEEEixB7v160006Em, symObjAddr: 0x14A60, symBinAddr: 0x10001D170, symSize: 0x20 }
  - { offsetInCU: 0x25088, offset: 0x5461F, size: 0x8, addend: 0x0, symName: __ZNSt3__16vectorIN2sf7Vector2IfEENS_9allocatorIS3_EEEC1B7v160006Ev, symObjAddr: 0x14A80, symBinAddr: 0x10001D190, symSize: 0x20 }
  - { offsetInCU: 0x250B2, offset: 0x54649, size: 0x8, addend: 0x0, symName: __ZNK17CaseServicePublic7setEtatEb, symObjAddr: 0x14AA0, symBinAddr: 0x10001D1B0, symSize: 0x20 }
  - { offsetInCU: 0x250E6, offset: 0x5467D, size: 0x8, addend: 0x0, symName: __ZNSt3__16vectorIN2sf7Vector2IfEENS_9allocatorIS3_EEEC2B7v160006Ev, symObjAddr: 0x14AC0, symBinAddr: 0x10001D1D0, symSize: 0x60 }
  - { offsetInCU: 0x25110, offset: 0x546A7, size: 0x8, addend: 0x0, symName: __ZNSt3__117__compressed_pairIPN2sf7Vector2IfEENS_9allocatorIS3_EEEC1B7v160006IDnNS_18__default_init_tagEEEOT_OT0_, symObjAddr: 0x14B20, symBinAddr: 0x10001D230, symSize: 0x30 }
  - { offsetInCU: 0x25168, offset: 0x546FF, size: 0x8, addend: 0x0, symName: __ZNSt3__117__compressed_pairIPN2sf7Vector2IfEENS_9allocatorIS3_EEEC2B7v160006IDnNS_18__default_init_tagEEEOT_OT0_, symObjAddr: 0x14B50, symBinAddr: 0x10001D260, symSize: 0x40 }
  - { offsetInCU: 0x251C0, offset: 0x54757, size: 0x8, addend: 0x0, symName: __ZNSt3__122__compressed_pair_elemINS_9allocatorIN2sf7Vector2IfEEEELi1ELb1EEC2B7v160006ENS_18__default_init_tagE, symObjAddr: 0x14B90, symBinAddr: 0x10001D2A0, symSize: 0x20 }
  - { offsetInCU: 0x251F5, offset: 0x5478C, size: 0x8, addend: 0x0, symName: __ZNSt3__19allocatorIN2sf7Vector2IfEEEC2B7v160006Ev, symObjAddr: 0x14BB0, symBinAddr: 0x10001D2C0, symSize: 0x20 }
  - { offsetInCU: 0x2521F, offset: 0x547B6, size: 0x8, addend: 0x0, symName: __ZNSt3__116__non_trivial_ifILb1ENS_9allocatorIN2sf7Vector2IfEEEEEC2B7v160006Ev, symObjAddr: 0x14BD0, symBinAddr: 0x10001D2E0, symSize: 0x10 }
  - { offsetInCU: 0x25249, offset: 0x547E0, size: 0x8, addend: 0x0, symName: __ZN17CaseServicePublicD2Ev, symObjAddr: 0x14BE0, symBinAddr: 0x10001D2F0, symSize: 0x40 }
  - { offsetInCU: 0x25362, offset: 0x548F9, size: 0x8, addend: 0x0, symName: __ZN18CaseFermetureVilleC1Ei, symObjAddr: 0x14C20, symBinAddr: 0x10001D330, symSize: 0x30 }
  - { offsetInCU: 0x2539A, offset: 0x54931, size: 0x8, addend: 0x0, symName: __ZN18CaseFermetureVilleC2Ei, symObjAddr: 0x14C50, symBinAddr: 0x10001D360, symSize: 0x40 }
  - { offsetInCU: 0x253D2, offset: 0x54969, size: 0x8, addend: 0x0, symName: __ZNK18CaseFermetureVille6actionER6JoueurRN2sf12RenderWindowENSt3__16vectorINS2_7Vector2IfEENS5_9allocatorIS8_EEEE, symObjAddr: 0x14C90, symBinAddr: 0x10001D3A0, symSize: 0x700 }
  - { offsetInCU: 0x2548A, offset: 0x54A21, size: 0x8, addend: 0x0, symName: __ZNK18CaseFermetureVille9actionbotER6JoueurRN2sf12RenderWindowENSt3__16vectorINS2_7Vector2IfEENS5_9allocatorIS8_EEEEii, symObjAddr: 0x15390, symBinAddr: 0x10001DAA0, symSize: 0xC0 }
  - { offsetInCU: 0x254F7, offset: 0x54A8E, size: 0x8, addend: 0x0, symName: __ZN18CaseFermetureVilleD1Ev, symObjAddr: 0x15450, symBinAddr: 0x10001DB60, symSize: 0x20 }
  - { offsetInCU: 0x25523, offset: 0x54ABA, size: 0x8, addend: 0x0, symName: __ZN18CaseFermetureVilleD0Ev, symObjAddr: 0x15470, symBinAddr: 0x10001DB80, symSize: 0x30 }
  - { offsetInCU: 0x2554F, offset: 0x54AE6, size: 0x8, addend: 0x0, symName: __ZNK18CaseFermetureVille11findtextureER6Joueur, symObjAddr: 0x154A0, symBinAddr: 0x10001DBB0, symSize: 0xE0 }
  - { offsetInCU: 0x25583, offset: 0x54B1A, size: 0x8, addend: 0x0, symName: __ZNK18CaseFermetureVille11gererjoueurER6JoueurRN2sf12RenderWindowERNS2_6SpriteES6_S6_, symObjAddr: 0x15580, symBinAddr: 0x10001DC90, symSize: 0x190 }
  - { offsetInCU: 0x2560D, offset: 0x54BA4, size: 0x8, addend: 0x0, symName: __ZNK6Joueur22getCarteOuvertureVilleEv, symObjAddr: 0x15710, symBinAddr: 0x10001DE20, symSize: 0x20 }
  - { offsetInCU: 0x25633, offset: 0x54BCA, size: 0x8, addend: 0x0, symName: __ZN6Joueur14setFermerVilleEb, symObjAddr: 0x15730, symBinAddr: 0x10001DE40, symSize: 0x20 }
  - { offsetInCU: 0x25667, offset: 0x54BFE, size: 0x8, addend: 0x0, symName: __ZN18CaseFermetureVilleD2Ev, symObjAddr: 0x15750, symBinAddr: 0x10001DE60, symSize: 0x20 }
  - { offsetInCU: 0x25693, offset: 0x54C2A, size: 0x8, addend: 0x0, symName: __ZNSt3__14listIP6JoueurNS_9allocatorIS2_EEED2Ev, symObjAddr: 0x15770, symBinAddr: 0x10001DE80, symSize: 0x20 }
  - { offsetInCU: 0x256C0, offset: 0x54C57, size: 0x8, addend: 0x0, symName: __ZNSt3__110__list_impIP6JoueurNS_9allocatorIS2_EEED2Ev, symObjAddr: 0x15790, symBinAddr: 0x10001DEA0, symSize: 0x40 }
  - { offsetInCU: 0x256EC, offset: 0x54C83, size: 0x8, addend: 0x0, symName: __ZNSt3__110__list_impIP6JoueurNS_9allocatorIS2_EEE5clearEv, symObjAddr: 0x157D0, symBinAddr: 0x10001DEE0, symSize: 0xF0 }
  - { offsetInCU: 0x2575E, offset: 0x54CF5, size: 0x8, addend: 0x0, symName: __ZNKSt3__110__list_impIP6JoueurNS_9allocatorIS2_EEE5emptyB7v160006Ev, symObjAddr: 0x158D0, symBinAddr: 0x10001DFE0, symSize: 0x30 }
  - { offsetInCU: 0x25784, offset: 0x54D1B, size: 0x8, addend: 0x0, symName: __ZNSt3__110__list_impIP6JoueurNS_9allocatorIS2_EEE12__node_allocB7v160006Ev, symObjAddr: 0x15900, symBinAddr: 0x10001E010, symSize: 0x20 }
  - { offsetInCU: 0x257AA, offset: 0x54D41, size: 0x8, addend: 0x0, symName: __ZNKSt3__110__list_impIP6JoueurNS_9allocatorIS2_EEE13__end_as_linkB7v160006Ev, symObjAddr: 0x15920, symBinAddr: 0x10001E030, symSize: 0x30 }
  - { offsetInCU: 0x257D0, offset: 0x54D67, size: 0x8, addend: 0x0, symName: __ZNSt3__110__list_impIP6JoueurNS_9allocatorIS2_EEE14__unlink_nodesEPNS_16__list_node_baseIS2_PvEES9_, symObjAddr: 0x15950, symBinAddr: 0x10001E060, symSize: 0x40 }
  - { offsetInCU: 0x25805, offset: 0x54D9C, size: 0x8, addend: 0x0, symName: __ZNSt3__110__list_impIP6JoueurNS_9allocatorIS2_EEE4__szB7v160006Ev, symObjAddr: 0x15990, symBinAddr: 0x10001E0A0, symSize: 0x20 }
  - { offsetInCU: 0x2582B, offset: 0x54DC2, size: 0x8, addend: 0x0, symName: __ZNSt3__116__list_node_baseIP6JoueurPvE9__as_nodeB7v160006Ev, symObjAddr: 0x159B0, symBinAddr: 0x10001E0C0, symSize: 0x20 }
  - { offsetInCU: 0x25851, offset: 0x54DE8, size: 0x8, addend: 0x0, symName: __ZNSt3__116allocator_traitsINS_9allocatorINS_11__list_nodeIP6JoueurPvEEEEE7destroyB7v160006IS4_vvEEvRS7_PT_, symObjAddr: 0x159D0, symBinAddr: 0x10001E0E0, symSize: 0x10 }
  - { offsetInCU: 0x2588C, offset: 0x54E23, size: 0x8, addend: 0x0, symName: __ZNSt3__116allocator_traitsINS_9allocatorINS_11__list_nodeIP6JoueurPvEEEEE10deallocateB7v160006ERS7_PS6_m, symObjAddr: 0x159E0, symBinAddr: 0x10001E0F0, symSize: 0x30 }
  - { offsetInCU: 0x258CE, offset: 0x54E65, size: 0x8, addend: 0x0, symName: __ZNKSt3__110__list_impIP6JoueurNS_9allocatorIS2_EEE4__szB7v160006Ev, symObjAddr: 0x15A20, symBinAddr: 0x10001E130, symSize: 0x20 }
  - { offsetInCU: 0x258F4, offset: 0x54E8B, size: 0x8, addend: 0x0, symName: __ZNKSt3__117__compressed_pairImNS_9allocatorINS_11__list_nodeIP6JoueurPvEEEEE5firstB7v160006Ev, symObjAddr: 0x15A40, symBinAddr: 0x10001E150, symSize: 0x20 }
  - { offsetInCU: 0x2591A, offset: 0x54EB1, size: 0x8, addend: 0x0, symName: __ZNKSt3__122__compressed_pair_elemImLi0ELb0EE5__getB7v160006Ev, symObjAddr: 0x15A60, symBinAddr: 0x10001E170, symSize: 0x10 }
  - { offsetInCU: 0x25940, offset: 0x54ED7, size: 0x8, addend: 0x0, symName: __ZNSt3__117__compressed_pairImNS_9allocatorINS_11__list_nodeIP6JoueurPvEEEEE6secondB7v160006Ev, symObjAddr: 0x15A70, symBinAddr: 0x10001E180, symSize: 0x20 }
  - { offsetInCU: 0x25966, offset: 0x54EFD, size: 0x8, addend: 0x0, symName: __ZNSt3__122__compressed_pair_elemINS_9allocatorINS_11__list_nodeIP6JoueurPvEEEELi1ELb1EE5__getB7v160006Ev, symObjAddr: 0x15A90, symBinAddr: 0x10001E1A0, symSize: 0x10 }
  - { offsetInCU: 0x2598C, offset: 0x54F23, size: 0x8, addend: 0x0, symName: __ZNSt3__117__compressed_pairImNS_9allocatorINS_11__list_nodeIP6JoueurPvEEEEE5firstB7v160006Ev, symObjAddr: 0x15AA0, symBinAddr: 0x10001E1B0, symSize: 0x20 }
  - { offsetInCU: 0x259B2, offset: 0x54F49, size: 0x8, addend: 0x0, symName: __ZNSt3__122__compressed_pair_elemImLi0ELb0EE5__getB7v160006Ev, symObjAddr: 0x15AC0, symBinAddr: 0x10001E1D0, symSize: 0x10 }
  - { offsetInCU: 0x259D8, offset: 0x54F6F, size: 0x8, addend: 0x0, symName: __ZNSt3__19allocatorINS_11__list_nodeIP6JoueurPvEEE10deallocateB7v160006EPS5_m, symObjAddr: 0x15AD0, symBinAddr: 0x10001E1E0, symSize: 0x50 }
  - { offsetInCU: 0x25A1A, offset: 0x54FB1, size: 0x8, addend: 0x0, symName: __ZNSt3__16vectorIP4CaseNS_9allocatorIS2_EEED2B7v160006Ev, symObjAddr: 0x15B20, symBinAddr: 0x10001E230, symSize: 0x40 }
  - { offsetInCU: 0x25A44, offset: 0x54FDB, size: 0x8, addend: 0x0, symName: __ZNSt3__16vectorIP4CaseNS_9allocatorIS2_EEE16__destroy_vectorC1ERS5_, symObjAddr: 0x15B60, symBinAddr: 0x10001E270, symSize: 0x30 }
  - { offsetInCU: 0x25A7D, offset: 0x55014, size: 0x8, addend: 0x0, symName: __ZNSt3__16vectorIP4CaseNS_9allocatorIS2_EEE16__destroy_vectorclB7v160006Ev, symObjAddr: 0x15B90, symBinAddr: 0x10001E2A0, symSize: 0x90 }
  - { offsetInCU: 0x25AA3, offset: 0x5503A, size: 0x8, addend: 0x0, symName: __ZNSt3__16vectorIP4CaseNS_9allocatorIS2_EEE16__destroy_vectorC2ERS5_, symObjAddr: 0x15C20, symBinAddr: 0x10001E330, symSize: 0x20 }
  - { offsetInCU: 0x25ADC, offset: 0x55073, size: 0x8, addend: 0x0, symName: __ZNSt3__16vectorIP4CaseNS_9allocatorIS2_EEE7__clearB7v160006Ev, symObjAddr: 0x15C50, symBinAddr: 0x10001E360, symSize: 0x20 }
  - { offsetInCU: 0x25B02, offset: 0x55099, size: 0x8, addend: 0x0, symName: __ZNSt3__16vectorIP4CaseNS_9allocatorIS2_EEE22__base_destruct_at_endB7v160006EPS2_, symObjAddr: 0x15C70, symBinAddr: 0x10001E380, symSize: 0x80 }
  - { offsetInCU: 0x25B46, offset: 0x550DD, size: 0x8, addend: 0x0, symName: __ZN6JoueurC2Ev, symObjAddr: 0x15CF0, symBinAddr: 0x10001E400, symSize: 0x50 }
  - { offsetInCU: 0x25B70, offset: 0x55107, size: 0x8, addend: 0x0, symName: __ZNSt3__16vectorIiNS_9allocatorIiEEEC1B7v160006Ev, symObjAddr: 0x15D40, symBinAddr: 0x10001E450, symSize: 0x20 }
  - { offsetInCU: 0x25B9A, offset: 0x55131, size: 0x8, addend: 0x0, symName: __ZNSt3__16vectorIiNS_9allocatorIiEEEC2B7v160006Ev, symObjAddr: 0x15D60, symBinAddr: 0x10001E470, symSize: 0x60 }
  - { offsetInCU: 0x25BC4, offset: 0x5515B, size: 0x8, addend: 0x0, symName: __ZNSt3__117__compressed_pairIPiNS_9allocatorIiEEEC1B7v160006IDnNS_18__default_init_tagEEEOT_OT0_, symObjAddr: 0x15DC0, symBinAddr: 0x10001E4D0, symSize: 0x30 }
  - { offsetInCU: 0x25C1C, offset: 0x551B3, size: 0x8, addend: 0x0, symName: __ZNSt3__117__compressed_pairIPiNS_9allocatorIiEEEC2B7v160006IDnNS_18__default_init_tagEEEOT_OT0_, symObjAddr: 0x15DF0, symBinAddr: 0x10001E500, symSize: 0x40 }
  - { offsetInCU: 0x25C74, offset: 0x5520B, size: 0x8, addend: 0x0, symName: __ZNSt3__122__compressed_pair_elemINS_9allocatorIiEELi1ELb1EEC2B7v160006ENS_18__default_init_tagE, symObjAddr: 0x15E30, symBinAddr: 0x10001E540, symSize: 0x20 }
  - { offsetInCU: 0x25CA9, offset: 0x55240, size: 0x8, addend: 0x0, symName: __ZNSt3__19allocatorIiEC2B7v160006Ev, symObjAddr: 0x15E50, symBinAddr: 0x10001E560, symSize: 0x20 }
  - { offsetInCU: 0x25CD3, offset: 0x5526A, size: 0x8, addend: 0x0, symName: __ZNSt3__116__non_trivial_ifILb1ENS_9allocatorIiEEEC2B7v160006Ev, symObjAddr: 0x15E70, symBinAddr: 0x10001E580, symSize: 0x10 }
  - { offsetInCU: 0x25D02, offset: 0x55299, size: 0x8, addend: 0x0, symName: __ZN2sf8DrawableaSERKS0_, symObjAddr: 0x15EB0, symBinAddr: 0x10001E590, symSize: 0x20 }
  - { offsetInCU: 0x25D38, offset: 0x552CF, size: 0x8, addend: 0x0, symName: __ZN2sf13TransformableaSERKS0_, symObjAddr: 0x15ED0, symBinAddr: 0x10001E5B0, symSize: 0xA0 }
  - { offsetInCU: 0x25D73, offset: 0x5530A, size: 0x8, addend: 0x0, symName: __ZN2sf11VertexArrayaSEOS0_, symObjAddr: 0x15F70, symBinAddr: 0x10001E650, symSize: 0x50 }
  - { offsetInCU: 0x25DA4, offset: 0x5533B, size: 0x8, addend: 0x0, symName: __ZNSt3__16vectorIN2sf6VertexENS_9allocatorIS2_EEEaSB7v160006EOS5_, symObjAddr: 0x15FC0, symBinAddr: 0x10001E6A0, symSize: 0x30 }
  - { offsetInCU: 0x25DDB, offset: 0x55372, size: 0x8, addend: 0x0, symName: __ZNSt3__16vectorIN2sf6VertexENS_9allocatorIS2_EEE13__move_assignERS5_NS_17integral_constantIbLb1EEE, symObjAddr: 0x15FF0, symBinAddr: 0x10001E6D0, symSize: 0xB0 }
  - { offsetInCU: 0x25E1E, offset: 0x553B5, size: 0x8, addend: 0x0, symName: __ZNSt3__16vectorIN2sf6VertexENS_9allocatorIS2_EEE13__vdeallocateEv, symObjAddr: 0x160A0, symBinAddr: 0x10001E780, symSize: 0x80 }
  - { offsetInCU: 0x25E46, offset: 0x553DD, size: 0x8, addend: 0x0, symName: __ZNSt3__16vectorIN2sf6VertexENS_9allocatorIS2_EEE19__move_assign_allocB7v160006ERS5_, symObjAddr: 0x16120, symBinAddr: 0x10001E800, symSize: 0x30 }
  - { offsetInCU: 0x25E7B, offset: 0x55412, size: 0x8, addend: 0x0, symName: __ZNSt3__16vectorIN2sf6VertexENS_9allocatorIS2_EEE9__end_capB7v160006Ev, symObjAddr: 0x16150, symBinAddr: 0x10001E830, symSize: 0x20 }
  - { offsetInCU: 0x25EA1, offset: 0x55438, size: 0x8, addend: 0x0, symName: __ZNSt3__16vectorIN2sf6VertexENS_9allocatorIS2_EEE5clearB7v160006Ev, symObjAddr: 0x16180, symBinAddr: 0x10001E860, symSize: 0x50 }
  - { offsetInCU: 0x25ED6, offset: 0x5546D, size: 0x8, addend: 0x0, symName: __ZNKSt3__16vectorIN2sf6VertexENS_9allocatorIS2_EEE17__annotate_shrinkB7v160006Em, symObjAddr: 0x162B0, symBinAddr: 0x10001E8B0, symSize: 0xA0 }
  - { offsetInCU: 0x25F0B, offset: 0x554A2, size: 0x8, addend: 0x0, symName: __ZNSt3__16vectorIN2sf6VertexENS_9allocatorIS2_EEE19__move_assign_allocB7v160006ERS5_NS_17integral_constantIbLb1EEE, symObjAddr: 0x16540, symBinAddr: 0x10001E960, symSize: 0x30 }
  - { offsetInCU: 0x25F4C, offset: 0x554E3, size: 0x8, addend: 0x0, symName: __ZNSt3__117__compressed_pairIPN2sf6VertexENS_9allocatorIS2_EEE5firstB7v160006Ev, symObjAddr: 0x16570, symBinAddr: 0x10001E990, symSize: 0x20 }
  - { offsetInCU: 0x25F72, offset: 0x55509, size: 0x8, addend: 0x0, symName: __ZNSt3__122__compressed_pair_elemIPN2sf6VertexELi0ELb0EE5__getB7v160006Ev, symObjAddr: 0x16590, symBinAddr: 0x10001E9B0, symSize: 0x10 }
  - { offsetInCU: 0x25F98, offset: 0x5552F, size: 0x8, addend: 0x0, symName: __ZN3Jeu23initializePionAndPlayerEP6JoueurR4PionRKNSt3__112basic_stringIcNS4_11char_traitsIcEENS4_9allocatorIcEEEEff, symObjAddr: 0x168E0, symBinAddr: 0x10001E9C0, symSize: 0x50 }
  - { offsetInCU: 0x26004, offset: 0x5559B, size: 0x8, addend: 0x0, symName: __ZN7Tableau9addJoueurEP6Joueur, symObjAddr: 0x16930, symBinAddr: 0x10001EA10, symSize: 0x30 }
  - { offsetInCU: 0x26038, offset: 0x555CF, size: 0x8, addend: 0x0, symName: __ZN4Pion14setCheminImageERKNSt3__112basic_stringIcNS0_11char_traitsIcEENS0_9allocatorIcEEEE, symObjAddr: 0x16960, symBinAddr: 0x10001EA40, symSize: 0xB0 }
  - { offsetInCU: 0x2606C, offset: 0x55603, size: 0x8, addend: 0x0, symName: __ZN6Joueur7setPionEP4Pion, symObjAddr: 0x16A10, symBinAddr: 0x10001EAF0, symSize: 0x20 }
  - { offsetInCU: 0x260A0, offset: 0x55637, size: 0x8, addend: 0x0, symName: __ZNSt3__14listIP6JoueurNS_9allocatorIS2_EEE9push_backERKS2_, symObjAddr: 0x16A30, symBinAddr: 0x10001EB10, symSize: 0x100 }
  - { offsetInCU: 0x260F5, offset: 0x5568C, size: 0x8, addend: 0x0, symName: __ZNSt3__14listIP6JoueurNS_9allocatorIS2_EEE15__allocate_nodeB7v160006ERNS3_INS_11__list_nodeIS2_PvEEEE, symObjAddr: 0x16B30, symBinAddr: 0x10001EC10, symSize: 0x80 }
  - { offsetInCU: 0x26139, offset: 0x556D0, size: 0x8, addend: 0x0, symName: __ZNSt3__116allocator_traitsINS_9allocatorINS_11__list_nodeIP6JoueurPvEEEEE9constructB7v160006IS4_JRKS4_EvEEvRS7_PT_DpOT0_, symObjAddr: 0x16BB0, symBinAddr: 0x10001EC90, symSize: 0x30 }
  - { offsetInCU: 0x26190, offset: 0x55727, size: 0x8, addend: 0x0, symName: __ZNKSt3__110unique_ptrINS_11__list_nodeIP6JoueurPvEENS_22__allocator_destructorINS_9allocatorIS5_EEEEEptB7v160006Ev, symObjAddr: 0x16BE0, symBinAddr: 0x10001ECC0, symSize: 0x20 }
  - { offsetInCU: 0x261B6, offset: 0x5574D, size: 0x8, addend: 0x0, symName: __ZNSt3__14listIP6JoueurNS_9allocatorIS2_EEE20__link_nodes_at_backEPNS_16__list_node_baseIS2_PvEES9_, symObjAddr: 0x16C00, symBinAddr: 0x10001ECE0, symSize: 0x60 }
  - { offsetInCU: 0x261FC, offset: 0x55793, size: 0x8, addend: 0x0, symName: __ZNKSt3__110unique_ptrINS_11__list_nodeIP6JoueurPvEENS_22__allocator_destructorINS_9allocatorIS5_EEEEE3getB7v160006Ev, symObjAddr: 0x16C60, symBinAddr: 0x10001ED40, symSize: 0x20 }
  - { offsetInCU: 0x26222, offset: 0x557B9, size: 0x8, addend: 0x0, symName: __ZNSt3__111__list_nodeIP6JoueurPvE9__as_linkB7v160006Ev, symObjAddr: 0x16C80, symBinAddr: 0x10001ED60, symSize: 0x20 }
  - { offsetInCU: 0x26248, offset: 0x557DF, size: 0x8, addend: 0x0, symName: __ZNSt3__110unique_ptrINS_11__list_nodeIP6JoueurPvEENS_22__allocator_destructorINS_9allocatorIS5_EEEEE7releaseB7v160006Ev, symObjAddr: 0x16CA0, symBinAddr: 0x10001ED80, symSize: 0x40 }
  - { offsetInCU: 0x2627D, offset: 0x55814, size: 0x8, addend: 0x0, symName: __ZNSt3__110unique_ptrINS_11__list_nodeIP6JoueurPvEENS_22__allocator_destructorINS_9allocatorIS5_EEEEED1B7v160006Ev, symObjAddr: 0x16CE0, symBinAddr: 0x10001EDC0, symSize: 0x20 }
  - { offsetInCU: 0x262A7, offset: 0x5583E, size: 0x8, addend: 0x0, symName: __ZNSt3__116allocator_traitsINS_9allocatorINS_11__list_nodeIP6JoueurPvEEEEE8allocateB7v160006ERS7_m, symObjAddr: 0x16D00, symBinAddr: 0x10001EDE0, symSize: 0x30 }
  - { offsetInCU: 0x262DA, offset: 0x55871, size: 0x8, addend: 0x0, symName: __ZNSt3__122__allocator_destructorINS_9allocatorINS_11__list_nodeIP6JoueurPvEEEEEC1B7v160006ERS7_m, symObjAddr: 0x16D30, symBinAddr: 0x10001EE10, symSize: 0x30 }
  - { offsetInCU: 0x26325, offset: 0x558BC, size: 0x8, addend: 0x0, symName: __ZNSt3__110unique_ptrINS_11__list_nodeIP6JoueurPvEENS_22__allocator_destructorINS_9allocatorIS5_EEEEEC1B7v160006ILb1EvEEPS5_NS_16__dependent_typeINS_27__unique_ptr_deleter_sfinaeIS9_EEXT_EE20__good_rval_ref_typeE, symObjAddr: 0x16D60, symBinAddr: 0x10001EE40, symSize: 0x30 }
  - { offsetInCU: 0x26376, offset: 0x5590D, size: 0x8, addend: 0x0, symName: __ZNSt3__19allocatorINS_11__list_nodeIP6JoueurPvEEE8allocateB7v160006Em, symObjAddr: 0x16D90, symBinAddr: 0x10001EE70, symSize: 0x50 }
  - { offsetInCU: 0x263B4, offset: 0x5594B, size: 0x8, addend: 0x0, symName: __ZNSt3__116allocator_traitsINS_9allocatorINS_11__list_nodeIP6JoueurPvEEEEE8max_sizeB7v160006IS7_vEEmRKS7_, symObjAddr: 0x16DE0, symBinAddr: 0x10001EEC0, symSize: 0x20 }
  - { offsetInCU: 0x263E2, offset: 0x55979, size: 0x8, addend: 0x0, symName: __ZNKSt3__19allocatorINS_11__list_nodeIP6JoueurPvEEE8max_sizeB7v160006Ev, symObjAddr: 0x16E00, symBinAddr: 0x10001EEE0, symSize: 0x20 }
  - { offsetInCU: 0x26408, offset: 0x5599F, size: 0x8, addend: 0x0, symName: __ZNSt3__122__allocator_destructorINS_9allocatorINS_11__list_nodeIP6JoueurPvEEEEEC2B7v160006ERS7_m, symObjAddr: 0x16E20, symBinAddr: 0x10001EF00, symSize: 0x30 }
  - { offsetInCU: 0x2644E, offset: 0x559E5, size: 0x8, addend: 0x0, symName: __ZNSt3__110unique_ptrINS_11__list_nodeIP6JoueurPvEENS_22__allocator_destructorINS_9allocatorIS5_EEEEEC2B7v160006ILb1EvEEPS5_NS_16__dependent_typeINS_27__unique_ptr_deleter_sfinaeIS9_EEXT_EE20__good_rval_ref_typeE, symObjAddr: 0x16E50, symBinAddr: 0x10001EF30, symSize: 0x40 }
  - { offsetInCU: 0x2649F, offset: 0x55A36, size: 0x8, addend: 0x0, symName: __ZNSt3__117__compressed_pairIPNS_11__list_nodeIP6JoueurPvEENS_22__allocator_destructorINS_9allocatorIS5_EEEEEC1B7v160006IRS6_SA_EEOT_OT0_, symObjAddr: 0x16E90, symBinAddr: 0x10001EF70, symSize: 0x30 }
  - { offsetInCU: 0x264F7, offset: 0x55A8E, size: 0x8, addend: 0x0, symName: __ZNSt3__117__compressed_pairIPNS_11__list_nodeIP6JoueurPvEENS_22__allocator_destructorINS_9allocatorIS5_EEEEEC2B7v160006IRS6_SA_EEOT_OT0_, symObjAddr: 0x16EC0, symBinAddr: 0x10001EFA0, symSize: 0x40 }
  - { offsetInCU: 0x2654F, offset: 0x55AE6, size: 0x8, addend: 0x0, symName: __ZNSt3__122__compressed_pair_elemIPNS_11__list_nodeIP6JoueurPvEELi0ELb0EEC2B7v160006IRS6_vEEOT_, symObjAddr: 0x16F00, symBinAddr: 0x10001EFE0, symSize: 0x20 }
  - { offsetInCU: 0x26591, offset: 0x55B28, size: 0x8, addend: 0x0, symName: __ZNSt3__122__compressed_pair_elemINS_22__allocator_destructorINS_9allocatorINS_11__list_nodeIP6JoueurPvEEEEEELi1ELb0EEC2B7v160006IS9_vEEOT_, symObjAddr: 0x16F20, symBinAddr: 0x10001F000, symSize: 0x30 }
  - { offsetInCU: 0x265D3, offset: 0x55B6A, size: 0x8, addend: 0x0, symName: __ZNSt3__19allocatorINS_11__list_nodeIP6JoueurPvEEE9constructB7v160006IS3_JRKS3_EEEvPT_DpOT0_, symObjAddr: 0x16F50, symBinAddr: 0x10001F030, symSize: 0x20 }
  - { offsetInCU: 0x26629, offset: 0x55BC0, size: 0x8, addend: 0x0, symName: __ZNKSt3__117__compressed_pairIPNS_11__list_nodeIP6JoueurPvEENS_22__allocator_destructorINS_9allocatorIS5_EEEEE5firstB7v160006Ev, symObjAddr: 0x16F70, symBinAddr: 0x10001F050, symSize: 0x20 }
  - { offsetInCU: 0x2664F, offset: 0x55BE6, size: 0x8, addend: 0x0, symName: __ZNKSt3__122__compressed_pair_elemIPNS_11__list_nodeIP6JoueurPvEELi0ELb0EE5__getB7v160006Ev, symObjAddr: 0x16F90, symBinAddr: 0x10001F070, symSize: 0x10 }
  - { offsetInCU: 0x26675, offset: 0x55C0C, size: 0x8, addend: 0x0, symName: __ZNSt3__117__compressed_pairIPNS_11__list_nodeIP6JoueurPvEENS_22__allocator_destructorINS_9allocatorIS5_EEEEE5firstB7v160006Ev, symObjAddr: 0x16FA0, symBinAddr: 0x10001F080, symSize: 0x20 }
  - { offsetInCU: 0x2669B, offset: 0x55C32, size: 0x8, addend: 0x0, symName: __ZNSt3__122__compressed_pair_elemIPNS_11__list_nodeIP6JoueurPvEELi0ELb0EE5__getB7v160006Ev, symObjAddr: 0x16FC0, symBinAddr: 0x10001F0A0, symSize: 0x10 }
  - { offsetInCU: 0x266C1, offset: 0x55C58, size: 0x8, addend: 0x0, symName: __ZNSt3__110unique_ptrINS_11__list_nodeIP6JoueurPvEENS_22__allocator_destructorINS_9allocatorIS5_EEEEED2B7v160006Ev, symObjAddr: 0x16FD0, symBinAddr: 0x10001F0B0, symSize: 0x20 }
  - { offsetInCU: 0x266EB, offset: 0x55C82, size: 0x8, addend: 0x0, symName: __ZNSt3__110unique_ptrINS_11__list_nodeIP6JoueurPvEENS_22__allocator_destructorINS_9allocatorIS5_EEEEE5resetB7v160006EPS5_, symObjAddr: 0x16FF0, symBinAddr: 0x10001F0D0, symSize: 0x70 }
  - { offsetInCU: 0x2672F, offset: 0x55CC6, size: 0x8, addend: 0x0, symName: __ZNSt3__117__compressed_pairIPNS_11__list_nodeIP6JoueurPvEENS_22__allocator_destructorINS_9allocatorIS5_EEEEE6secondB7v160006Ev, symObjAddr: 0x17060, symBinAddr: 0x10001F140, symSize: 0x20 }
  - { offsetInCU: 0x26755, offset: 0x55CEC, size: 0x8, addend: 0x0, symName: __ZNSt3__122__allocator_destructorINS_9allocatorINS_11__list_nodeIP6JoueurPvEEEEEclB7v160006EPS6_, symObjAddr: 0x17080, symBinAddr: 0x10001F160, symSize: 0x30 }
  - { offsetInCU: 0x26789, offset: 0x55D20, size: 0x8, addend: 0x0, symName: __ZNSt3__122__compressed_pair_elemINS_22__allocator_destructorINS_9allocatorINS_11__list_nodeIP6JoueurPvEEEEEELi1ELb0EE5__getB7v160006Ev, symObjAddr: 0x170B0, symBinAddr: 0x10001F190, symSize: 0x10 }
  - { offsetInCU: 0x267AF, offset: 0x55D46, size: 0x8, addend: 0x0, symName: __ZNSt3__14pairIffEC1B7v160006IRfS3_LPv0EEEOT_OT0_, symObjAddr: 0x170F0, symBinAddr: 0x10001F1D0, symSize: 0x30 }
  - { offsetInCU: 0x2680D, offset: 0x55DA4, size: 0x8, addend: 0x0, symName: __ZNSt3__14pairIffEC2B7v160006IRfS3_LPv0EEEOT_OT0_, symObjAddr: 0x17120, symBinAddr: 0x10001F200, symSize: 0x30 }
  - { offsetInCU: 0x2686B, offset: 0x55E02, size: 0x8, addend: 0x0, symName: __ZNSt3__16vectorIN2sf6SpriteENS_9allocatorIS2_EEEC2B7v160006Ev, symObjAddr: 0x17150, symBinAddr: 0x10001F230, symSize: 0x60 }
  - { offsetInCU: 0x26895, offset: 0x55E2C, size: 0x8, addend: 0x0, symName: __ZNSt3__117__compressed_pairIPN2sf6SpriteENS_9allocatorIS2_EEEC1B7v160006IDnNS_18__default_init_tagEEEOT_OT0_, symObjAddr: 0x171B0, symBinAddr: 0x10001F290, symSize: 0x30 }
  - { offsetInCU: 0x268ED, offset: 0x55E84, size: 0x8, addend: 0x0, symName: __ZNSt3__117__compressed_pairIPN2sf6SpriteENS_9allocatorIS2_EEEC2B7v160006IDnNS_18__default_init_tagEEEOT_OT0_, symObjAddr: 0x171F0, symBinAddr: 0x10001F2D0, symSize: 0x40 }
  - { offsetInCU: 0x26945, offset: 0x55EDC, size: 0x8, addend: 0x0, symName: __ZNSt3__122__compressed_pair_elemIPN2sf6SpriteELi0ELb0EEC2B7v160006IDnvEEOT_, symObjAddr: 0x17230, symBinAddr: 0x10001F310, symSize: 0x20 }
  - { offsetInCU: 0x26987, offset: 0x55F1E, size: 0x8, addend: 0x0, symName: __ZNSt3__122__compressed_pair_elemINS_9allocatorIN2sf6SpriteEEELi1ELb1EEC2B7v160006ENS_18__default_init_tagE, symObjAddr: 0x17250, symBinAddr: 0x10001F330, symSize: 0x20 }
  - { offsetInCU: 0x269BC, offset: 0x55F53, size: 0x8, addend: 0x0, symName: __ZNSt3__19allocatorIN2sf6SpriteEEC2B7v160006Ev, symObjAddr: 0x17270, symBinAddr: 0x10001F350, symSize: 0x20 }
  - { offsetInCU: 0x269E6, offset: 0x55F7D, size: 0x8, addend: 0x0, symName: __ZNSt3__116__non_trivial_ifILb1ENS_9allocatorIN2sf6SpriteEEEEC2B7v160006Ev, symObjAddr: 0x17290, symBinAddr: 0x10001F370, symSize: 0x10 }
  - { offsetInCU: 0x26A10, offset: 0x55FA7, size: 0x8, addend: 0x0, symName: __ZN3Jeu10comptetourEP6JoueuriRb, symObjAddr: 0x172A0, symBinAddr: 0x10001F380, symSize: 0xD0 }
  - { offsetInCU: 0x26A6F, offset: 0x56006, size: 0x8, addend: 0x0, symName: __ZNK6Joueur14getFermerVilleEv, symObjAddr: 0x17370, symBinAddr: 0x10001F450, symSize: 0x20 }
  - { offsetInCU: 0x26A95, offset: 0x5602C, size: 0x8, addend: 0x0, symName: __ZN3Jeu11performTurnEP6JoueurRiRNSt3__16vectorIN2sf7Vector2IfEENS3_9allocatorIS7_EEEERNS5_12RenderWindowER7TableauR6ButtonRNS5_6SpriteERNS4_ISI_NS8_ISI_EEEERNS5_4TextESO_SO_SJ_SO_RKNS3_12basic_stringIcNS3_11char_traitsIcEENS8_IcEEEER3DesS1_S1_, symObjAddr: 0x17390, symBinAddr: 0x10001F470, symSize: 0x660 }
  - { offsetInCU: 0x26BC2, offset: 0x56159, size: 0x8, addend: 0x0, symName: __ZN3Jeu21updateTimerAndDisplayERN2sf12RenderWindowERNS0_5ClockERNS0_4TextE, symObjAddr: 0x179F0, symBinAddr: 0x10001FAD0, symSize: 0x300 }
  - { offsetInCU: 0x26C3F, offset: 0x561D6, size: 0x8, addend: 0x0, symName: __ZN3Jeu16drawGameElementsERN2sf12RenderWindowER6ButtonRNS0_6SpriteEP6JoueurS8_RNSt3__16vectorIS5_NS9_9allocatorIS5_EEEERNS0_4TextESG_SG_S6_SG_RNSA_INS0_7Vector2IfEENSB_ISI_EEEENS9_12basic_stringIcNS9_11char_traitsIcEENSB_IcEEEE, symObjAddr: 0x17CF0, symBinAddr: 0x10001FDD0, symSize: 0x350 }
  - { offsetInCU: 0x26D3B, offset: 0x562D2, size: 0x8, addend: 0x0, symName: __ZNSt3__16vectorIN2sf6SpriteENS_9allocatorIS2_EEEaSB7v160006ERKS5_, symObjAddr: 0x18040, symBinAddr: 0x100020120, symSize: 0x60 }
  - { offsetInCU: 0x26D72, offset: 0x56309, size: 0x8, addend: 0x0, symName: __ZNSt3__16vectorIN2sf7Vector2IfEENS_9allocatorIS3_EEEixB7v160006Em, symObjAddr: 0x180A0, symBinAddr: 0x100020180, symSize: 0x20 }
  - { offsetInCU: 0x26DA9, offset: 0x56340, size: 0x8, addend: 0x0, symName: __ZN7Tableau16actionAtPositionERiRN2sf12RenderWindowENSt3__16vectorINS1_7Vector2IfEENS4_9allocatorIS7_EEEEP6Joueur, symObjAddr: 0x180C0, symBinAddr: 0x1000201A0, symSize: 0x170 }
  - { offsetInCU: 0x26E17, offset: 0x563AE, size: 0x8, addend: 0x0, symName: __ZNSt3__14pairINS_6vectorIN2sf6SpriteENS_9allocatorIS3_EEEEiED1Ev, symObjAddr: 0x18230, symBinAddr: 0x100020310, symSize: 0x20 }
  - { offsetInCU: 0x26E43, offset: 0x563DA, size: 0x8, addend: 0x0, symName: __ZNSt3__16vectorIN2sf6SpriteENS_9allocatorIS2_EEE19__copy_assign_allocB7v160006ERKS5_, symObjAddr: 0x18250, symBinAddr: 0x100020330, symSize: 0x30 }
  - { offsetInCU: 0x26E78, offset: 0x5640F, size: 0x8, addend: 0x0, symName: __ZNSt3__16vectorIN2sf6SpriteENS_9allocatorIS2_EEE6assignIPS2_Li0EEEvT_S8_, symObjAddr: 0x18280, symBinAddr: 0x100020360, symSize: 0x160 }
  - { offsetInCU: 0x26F17, offset: 0x564AE, size: 0x8, addend: 0x0, symName: __ZNSt3__16vectorIN2sf6SpriteENS_9allocatorIS2_EEE19__copy_assign_allocB7v160006ERKS5_NS_17integral_constantIbLb0EEE, symObjAddr: 0x183E0, symBinAddr: 0x1000204C0, symSize: 0x10 }
  - { offsetInCU: 0x26F55, offset: 0x564EC, size: 0x8, addend: 0x0, symName: __ZNKSt3__16vectorIN2sf6SpriteENS_9allocatorIS2_EEE8capacityB7v160006Ev, symObjAddr: 0x18420, symBinAddr: 0x100020500, symSize: 0x40 }
  - { offsetInCU: 0x26F7B, offset: 0x56512, size: 0x8, addend: 0x0, symName: __ZNKSt3__16vectorIN2sf6SpriteENS_9allocatorIS2_EEE4sizeB7v160006Ev, symObjAddr: 0x18460, symBinAddr: 0x100020540, symSize: 0x30 }
  - { offsetInCU: 0x26FA1, offset: 0x56538, size: 0x8, addend: 0x0, symName: __ZNSt3__16vectorIN2sf6SpriteENS_9allocatorIS2_EEE18__construct_at_endIPS2_Li0EEEvT_S8_m, symObjAddr: 0x18520, symBinAddr: 0x100020600, symSize: 0x90 }
  - { offsetInCU: 0x27014, offset: 0x565AB, size: 0x8, addend: 0x0, symName: __ZNSt3__16vectorIN2sf6SpriteENS_9allocatorIS2_EEE17__destruct_at_endB7v160006EPS2_, symObjAddr: 0x185B0, symBinAddr: 0x100020690, symSize: 0x60 }
  - { offsetInCU: 0x27058, offset: 0x565EF, size: 0x8, addend: 0x0, symName: __ZNSt3__16vectorIN2sf6SpriteENS_9allocatorIS2_EEE13__vdeallocateEv, symObjAddr: 0x18610, symBinAddr: 0x1000206F0, symSize: 0x80 }
  - { offsetInCU: 0x27080, offset: 0x56617, size: 0x8, addend: 0x0, symName: __ZNSt3__16vectorIN2sf6SpriteENS_9allocatorIS2_EEE11__vallocateB7v160006Em, symObjAddr: 0x18690, symBinAddr: 0x100020770, symSize: 0xA0 }
  - { offsetInCU: 0x270C4, offset: 0x5665B, size: 0x8, addend: 0x0, symName: __ZNKSt3__16vectorIN2sf6SpriteENS_9allocatorIS2_EEE11__recommendB7v160006Em, symObjAddr: 0x18730, symBinAddr: 0x100020810, symSize: 0xA0 }
  - { offsetInCU: 0x27119, offset: 0x566B0, size: 0x8, addend: 0x0, symName: __ZNKSt3__16vectorIN2sf6SpriteENS_9allocatorIS2_EEE9__end_capB7v160006Ev, symObjAddr: 0x18810, symBinAddr: 0x1000208F0, symSize: 0x20 }
  - { offsetInCU: 0x2713F, offset: 0x566D6, size: 0x8, addend: 0x0, symName: __ZNKSt3__117__compressed_pairIPN2sf6SpriteENS_9allocatorIS2_EEE5firstB7v160006Ev, symObjAddr: 0x18830, symBinAddr: 0x100020910, symSize: 0x20 }
  - { offsetInCU: 0x27165, offset: 0x566FC, size: 0x8, addend: 0x0, symName: __ZNKSt3__122__compressed_pair_elemIPN2sf6SpriteELi0ELb0EE5__getB7v160006Ev, symObjAddr: 0x18850, symBinAddr: 0x100020930, symSize: 0x10 }
  - { offsetInCU: 0x271AE, offset: 0x56745, size: 0x8, addend: 0x0, symName: __ZNKSt3__111__copy_loopINS_17_ClassicAlgPolicyEEclB7v160006IPN2sf6SpriteES6_S6_EENS_4pairIT_T1_EES8_T0_S9_, symObjAddr: 0x18A10, symBinAddr: 0x100020AF0, symSize: 0x80 }
  - { offsetInCU: 0x27219, offset: 0x567B0, size: 0x8, addend: 0x0, symName: __ZN2sf6SpriteaSERKS0_, symObjAddr: 0x18B50, symBinAddr: 0x100020C30, symSize: 0x60 }
  - { offsetInCU: 0x2724A, offset: 0x567E1, size: 0x8, addend: 0x0, symName: __ZNSt3__118__unwrap_iter_implIPN2sf6SpriteELb1EE8__unwrapB7v160006ES3_, symObjAddr: 0x18BB0, symBinAddr: 0x100020C90, symSize: 0x20 }
  - { offsetInCU: 0x27272, offset: 0x56809, size: 0x8, addend: 0x0, symName: __ZNSt3__14pairIPN2sf6SpriteES3_EC1B7v160006IS3_S3_LPv0EEEOT_OT0_, symObjAddr: 0x18BE0, symBinAddr: 0x100020CC0, symSize: 0x30 }
  - { offsetInCU: 0x272D0, offset: 0x56867, size: 0x8, addend: 0x0, symName: __ZNSt3__14pairIPN2sf6SpriteES3_EC2B7v160006IS3_S3_LPv0EEEOT_OT0_, symObjAddr: 0x18C10, symBinAddr: 0x100020CF0, symSize: 0x30 }
  - { offsetInCU: 0x2732E, offset: 0x568C5, size: 0x8, addend: 0x0, symName: __ZNSt3__118__unwrap_iter_implIPN2sf6SpriteELb1EE8__rewrapB7v160006ES3_S3_, symObjAddr: 0x18C40, symBinAddr: 0x100020D20, symSize: 0x60 }
  - { offsetInCU: 0x27378, offset: 0x5690F, size: 0x8, addend: 0x0, symName: __ZNSt3__16vectorIN2sf6SpriteENS_9allocatorIS2_EEE21_ConstructTransactionC1B7v160006ERS5_m, symObjAddr: 0x18CA0, symBinAddr: 0x100020D80, symSize: 0x30 }
  - { offsetInCU: 0x273C0, offset: 0x56957, size: 0x8, addend: 0x0, symName: __ZNSt3__16vectorIN2sf6SpriteENS_9allocatorIS2_EEE7__allocB7v160006Ev, symObjAddr: 0x18DD0, symBinAddr: 0x100020EB0, symSize: 0x20 }
  - { offsetInCU: 0x273E6, offset: 0x5697D, size: 0x8, addend: 0x0, symName: __ZNSt3__16vectorIN2sf6SpriteENS_9allocatorIS2_EEE21_ConstructTransactionD1B7v160006Ev, symObjAddr: 0x18DF0, symBinAddr: 0x100020ED0, symSize: 0x20 }
  - { offsetInCU: 0x27410, offset: 0x569A7, size: 0x8, addend: 0x0, symName: __ZNSt3__16vectorIN2sf6SpriteENS_9allocatorIS2_EEE21_ConstructTransactionC2B7v160006ERS5_m, symObjAddr: 0x18E10, symBinAddr: 0x100020EF0, symSize: 0x40 }
  - { offsetInCU: 0x27458, offset: 0x569EF, size: 0x8, addend: 0x0, symName: __ZNSt3__129_AllocatorDestroyRangeReverseINS_9allocatorIN2sf6SpriteEEEPS3_EC1B7v160006ERS4_RS5_S8_, symObjAddr: 0x18EB0, symBinAddr: 0x100020F90, symSize: 0x40 }
  - { offsetInCU: 0x274AF, offset: 0x56A46, size: 0x8, addend: 0x0, symName: __ZNSt3__116allocator_traitsINS_9allocatorIN2sf6SpriteEEEE9constructB7v160006IS3_JRS3_EvEEvRS4_PT_DpOT0_, symObjAddr: 0x18EF0, symBinAddr: 0x100020FD0, symSize: 0x30 }
  - { offsetInCU: 0x27506, offset: 0x56A9D, size: 0x8, addend: 0x0, symName: __ZNSt3__128__exception_guard_exceptionsINS_29_AllocatorDestroyRangeReverseINS_9allocatorIN2sf6SpriteEEEPS4_EEE10__completeB7v160006Ev, symObjAddr: 0x18F20, symBinAddr: 0x100021000, symSize: 0x20 }
  - { offsetInCU: 0x2752C, offset: 0x56AC3, size: 0x8, addend: 0x0, symName: __ZNSt3__128__exception_guard_exceptionsINS_29_AllocatorDestroyRangeReverseINS_9allocatorIN2sf6SpriteEEEPS4_EEED1B7v160006Ev, symObjAddr: 0x18F40, symBinAddr: 0x100021020, symSize: 0x20 }
  - { offsetInCU: 0x27556, offset: 0x56AED, size: 0x8, addend: 0x0, symName: __ZNSt3__128__exception_guard_exceptionsINS_29_AllocatorDestroyRangeReverseINS_9allocatorIN2sf6SpriteEEEPS4_EEEC1B7v160006ES7_, symObjAddr: 0x18F60, symBinAddr: 0x100021040, symSize: 0x40 }
  - { offsetInCU: 0x2758E, offset: 0x56B25, size: 0x8, addend: 0x0, symName: __ZNSt3__128__exception_guard_exceptionsINS_29_AllocatorDestroyRangeReverseINS_9allocatorIN2sf6SpriteEEEPS4_EEEC2B7v160006ES7_, symObjAddr: 0x18FA0, symBinAddr: 0x100021080, symSize: 0x30 }
  - { offsetInCU: 0x275C6, offset: 0x56B5D, size: 0x8, addend: 0x0, symName: __ZNSt3__129_AllocatorDestroyRangeReverseINS_9allocatorIN2sf6SpriteEEEPS3_EC2B7v160006ERS4_RS5_S8_, symObjAddr: 0x18FD0, symBinAddr: 0x1000210B0, symSize: 0x40 }
  - { offsetInCU: 0x2761D, offset: 0x56BB4, size: 0x8, addend: 0x0, symName: __ZNSt3__19allocatorIN2sf6SpriteEE9constructB7v160006IS2_JRS2_EEEvPT_DpOT0_, symObjAddr: 0x19010, symBinAddr: 0x1000210F0, symSize: 0x30 }
  - { offsetInCU: 0x27673, offset: 0x56C0A, size: 0x8, addend: 0x0, symName: __ZNSt3__128__exception_guard_exceptionsINS_29_AllocatorDestroyRangeReverseINS_9allocatorIN2sf6SpriteEEEPS4_EEED2B7v160006Ev, symObjAddr: 0x19040, symBinAddr: 0x100021120, symSize: 0x40 }
  - { offsetInCU: 0x2769D, offset: 0x56C34, size: 0x8, addend: 0x0, symName: __ZNKSt3__129_AllocatorDestroyRangeReverseINS_9allocatorIN2sf6SpriteEEEPS3_EclB7v160006Ev, symObjAddr: 0x19080, symBinAddr: 0x100021160, symSize: 0x60 }
  - { offsetInCU: 0x276C3, offset: 0x56C5A, size: 0x8, addend: 0x0, symName: __ZNSt3__116reverse_iteratorIPN2sf6SpriteEEC1B7v160006ES3_, symObjAddr: 0x19150, symBinAddr: 0x100021230, symSize: 0x30 }
  - { offsetInCU: 0x276FB, offset: 0x56C92, size: 0x8, addend: 0x0, symName: __ZNSt3__116allocator_traitsINS_9allocatorIN2sf6SpriteEEEE7destroyB7v160006IS3_vEEvRS4_PT_, symObjAddr: 0x191C0, symBinAddr: 0x1000212A0, symSize: 0x30 }
  - { offsetInCU: 0x27738, offset: 0x56CCF, size: 0x8, addend: 0x0, symName: __ZNSt3__116reverse_iteratorIPN2sf6SpriteEEppB7v160006Ev, symObjAddr: 0x19210, symBinAddr: 0x1000212F0, symSize: 0x20 }
  - { offsetInCU: 0x2775E, offset: 0x56CF5, size: 0x8, addend: 0x0, symName: __ZNKSt3__116reverse_iteratorIPN2sf6SpriteEE4baseB7v160006Ev, symObjAddr: 0x19230, symBinAddr: 0x100021310, symSize: 0x20 }
  - { offsetInCU: 0x27784, offset: 0x56D1B, size: 0x8, addend: 0x0, symName: __ZNSt3__19allocatorIN2sf6SpriteEE7destroyB7v160006EPS2_, symObjAddr: 0x19250, symBinAddr: 0x100021330, symSize: 0x20 }
  - { offsetInCU: 0x277BD, offset: 0x56D54, size: 0x8, addend: 0x0, symName: __ZNSt3__119__to_address_helperINS_16reverse_iteratorIPN2sf6SpriteEEEvE6__callB7v160006ERKS5_, symObjAddr: 0x19270, symBinAddr: 0x100021350, symSize: 0x40 }
  - { offsetInCU: 0x277E0, offset: 0x56D77, size: 0x8, addend: 0x0, symName: __ZNKSt3__116reverse_iteratorIPN2sf6SpriteEEptB7v160006Ev, symObjAddr: 0x192B0, symBinAddr: 0x100021390, symSize: 0x20 }
  - { offsetInCU: 0x27806, offset: 0x56D9D, size: 0x8, addend: 0x0, symName: __ZNKSt3__116reverse_iteratorIPN2sf6SpriteEEdeB7v160006Ev, symObjAddr: 0x192D0, symBinAddr: 0x1000213B0, symSize: 0x30 }
  - { offsetInCU: 0x2783B, offset: 0x56DD2, size: 0x8, addend: 0x0, symName: __ZNSt3__116reverse_iteratorIPN2sf6SpriteEEC2B7v160006ES3_, symObjAddr: 0x19300, symBinAddr: 0x1000213E0, symSize: 0x30 }
  - { offsetInCU: 0x27873, offset: 0x56E0A, size: 0x8, addend: 0x0, symName: __ZNSt3__117__compressed_pairIPN2sf6SpriteENS_9allocatorIS2_EEE6secondB7v160006Ev, symObjAddr: 0x19330, symBinAddr: 0x100021410, symSize: 0x20 }
  - { offsetInCU: 0x27899, offset: 0x56E30, size: 0x8, addend: 0x0, symName: __ZNSt3__122__compressed_pair_elemINS_9allocatorIN2sf6SpriteEEELi1ELb1EE5__getB7v160006Ev, symObjAddr: 0x19350, symBinAddr: 0x100021430, symSize: 0x10 }
  - { offsetInCU: 0x278BF, offset: 0x56E56, size: 0x8, addend: 0x0, symName: __ZNSt3__16vectorIN2sf6SpriteENS_9allocatorIS2_EEE21_ConstructTransactionD2B7v160006Ev, symObjAddr: 0x19360, symBinAddr: 0x100021440, symSize: 0x20 }
  - { offsetInCU: 0x278E9, offset: 0x56E80, size: 0x8, addend: 0x0, symName: __ZNSt3__16vectorIN2sf6SpriteENS_9allocatorIS2_EEE27__invalidate_iterators_pastB7v160006EPS2_, symObjAddr: 0x19380, symBinAddr: 0x100021460, symSize: 0x10 }
  - { offsetInCU: 0x27920, offset: 0x56EB7, size: 0x8, addend: 0x0, symName: __ZNSt3__16vectorIN2sf6SpriteENS_9allocatorIS2_EEE22__base_destruct_at_endB7v160006EPS2_, symObjAddr: 0x19390, symBinAddr: 0x100021470, symSize: 0x80 }
  - { offsetInCU: 0x27964, offset: 0x56EFB, size: 0x8, addend: 0x0, symName: __ZNKSt3__16vectorIN2sf6SpriteENS_9allocatorIS2_EEE17__annotate_shrinkB7v160006Em, symObjAddr: 0x19410, symBinAddr: 0x1000214F0, symSize: 0xB0 }
  - { offsetInCU: 0x27999, offset: 0x56F30, size: 0x8, addend: 0x0, symName: __ZNKSt3__16vectorIN2sf6SpriteENS_9allocatorIS2_EEE31__annotate_contiguous_containerB7v160006EPKvS7_S7_S7_, symObjAddr: 0x194C0, symBinAddr: 0x1000215A0, symSize: 0x20 }
  - { offsetInCU: 0x279EF, offset: 0x56F86, size: 0x8, addend: 0x0, symName: __ZNKSt3__16vectorIN2sf6SpriteENS_9allocatorIS2_EEE4dataB7v160006Ev, symObjAddr: 0x194E0, symBinAddr: 0x1000215C0, symSize: 0x20 }
  - { offsetInCU: 0x27A15, offset: 0x56FAC, size: 0x8, addend: 0x0, symName: __ZNSt3__16vectorIN2sf6SpriteENS_9allocatorIS2_EEE5clearB7v160006Ev, symObjAddr: 0x19500, symBinAddr: 0x1000215E0, symSize: 0x50 }
  - { offsetInCU: 0x27A4A, offset: 0x56FE1, size: 0x8, addend: 0x0, symName: __ZNSt3__116allocator_traitsINS_9allocatorIN2sf6SpriteEEEE10deallocateB7v160006ERS4_PS3_m, symObjAddr: 0x19550, symBinAddr: 0x100021630, symSize: 0x30 }
  - { offsetInCU: 0x27A8C, offset: 0x57023, size: 0x8, addend: 0x0, symName: __ZNSt3__16vectorIN2sf6SpriteENS_9allocatorIS2_EEE9__end_capB7v160006Ev, symObjAddr: 0x19580, symBinAddr: 0x100021660, symSize: 0x20 }
  - { offsetInCU: 0x27AB2, offset: 0x57049, size: 0x8, addend: 0x0, symName: __ZNSt3__16vectorIN2sf6SpriteENS_9allocatorIS2_EEE7__clearB7v160006Ev, symObjAddr: 0x195A0, symBinAddr: 0x100021680, symSize: 0x20 }
  - { offsetInCU: 0x27AD8, offset: 0x5706F, size: 0x8, addend: 0x0, symName: __ZNSt3__19allocatorIN2sf6SpriteEE10deallocateB7v160006EPS2_m, symObjAddr: 0x195C0, symBinAddr: 0x1000216A0, symSize: 0x50 }
  - { offsetInCU: 0x27B1A, offset: 0x570B1, size: 0x8, addend: 0x0, symName: __ZNSt3__117__compressed_pairIPN2sf6SpriteENS_9allocatorIS2_EEE5firstB7v160006Ev, symObjAddr: 0x19610, symBinAddr: 0x1000216F0, symSize: 0x20 }
  - { offsetInCU: 0x27B40, offset: 0x570D7, size: 0x8, addend: 0x0, symName: __ZNSt3__122__compressed_pair_elemIPN2sf6SpriteELi0ELb0EE5__getB7v160006Ev, symObjAddr: 0x19630, symBinAddr: 0x100021710, symSize: 0x10 }
  - { offsetInCU: 0x27B66, offset: 0x570FD, size: 0x8, addend: 0x0, symName: __ZNKSt3__16vectorIN2sf6SpriteENS_9allocatorIS2_EEE8max_sizeEv, symObjAddr: 0x19640, symBinAddr: 0x100021720, symSize: 0x60 }
  - { offsetInCU: 0x27B8E, offset: 0x57125, size: 0x8, addend: 0x0, symName: __ZNKSt3__16vectorIN2sf6SpriteENS_9allocatorIS2_EEE20__throw_length_errorB7v160006Ev, symObjAddr: 0x196A0, symBinAddr: 0x100021780, symSize: 0x20 }
  - { offsetInCU: 0x27BB4, offset: 0x5714B, size: 0x8, addend: 0x0, symName: __ZNKSt3__16vectorIN2sf6SpriteENS_9allocatorIS2_EEE14__annotate_newB7v160006Em, symObjAddr: 0x19700, symBinAddr: 0x1000217E0, symSize: 0xB0 }
  - { offsetInCU: 0x27BF3, offset: 0x5718A, size: 0x8, addend: 0x0, symName: __ZNSt3__116allocator_traitsINS_9allocatorIN2sf6SpriteEEEE8max_sizeB7v160006IS4_vEEmRKS4_, symObjAddr: 0x197B0, symBinAddr: 0x100021890, symSize: 0x20 }
  - { offsetInCU: 0x27C21, offset: 0x571B8, size: 0x8, addend: 0x0, symName: __ZNKSt3__16vectorIN2sf6SpriteENS_9allocatorIS2_EEE7__allocB7v160006Ev, symObjAddr: 0x197D0, symBinAddr: 0x1000218B0, symSize: 0x20 }
  - { offsetInCU: 0x27C47, offset: 0x571DE, size: 0x8, addend: 0x0, symName: __ZNKSt3__19allocatorIN2sf6SpriteEE8max_sizeB7v160006Ev, symObjAddr: 0x197F0, symBinAddr: 0x1000218D0, symSize: 0x20 }
  - { offsetInCU: 0x27C6D, offset: 0x57204, size: 0x8, addend: 0x0, symName: __ZNKSt3__117__compressed_pairIPN2sf6SpriteENS_9allocatorIS2_EEE6secondB7v160006Ev, symObjAddr: 0x19810, symBinAddr: 0x1000218F0, symSize: 0x20 }
  - { offsetInCU: 0x27C93, offset: 0x5722A, size: 0x8, addend: 0x0, symName: __ZNKSt3__122__compressed_pair_elemINS_9allocatorIN2sf6SpriteEEELi1ELb1EE5__getB7v160006Ev, symObjAddr: 0x19830, symBinAddr: 0x100021910, symSize: 0x10 }
  - { offsetInCU: 0x27CB9, offset: 0x57250, size: 0x8, addend: 0x0, symName: __ZNSt3__19allocatorIN2sf6SpriteEE8allocateB7v160006Em, symObjAddr: 0x19840, symBinAddr: 0x100021920, symSize: 0x50 }
  - { offsetInCU: 0x27CED, offset: 0x57284, size: 0x8, addend: 0x0, symName: __ZNK7Tableau17getCaseAtPositionEi, symObjAddr: 0x19890, symBinAddr: 0x100021970, symSize: 0xA0 }
  - { offsetInCU: 0x27D73, offset: 0x5730A, size: 0x8, addend: 0x0, symName: __ZNKSt3__16vectorIP4CaseNS_9allocatorIS2_EEE5beginB7v160006Ev, symObjAddr: 0x19930, symBinAddr: 0x100021A10, symSize: 0x30 }
  - { offsetInCU: 0x27D9B, offset: 0x57332, size: 0x8, addend: 0x0, symName: __ZNKSt3__16vectorIP4CaseNS_9allocatorIS2_EEE3endB7v160006Ev, symObjAddr: 0x19960, symBinAddr: 0x100021A40, symSize: 0x30 }
  - { offsetInCU: 0x27DC3, offset: 0x5735A, size: 0x8, addend: 0x0, symName: __ZNKSt3__111__wrap_iterIPKP4CaseEdeB7v160006Ev, symObjAddr: 0x199C0, symBinAddr: 0x100021AA0, symSize: 0x20 }
  - { offsetInCU: 0x27DE9, offset: 0x57380, size: 0x8, addend: 0x0, symName: __ZNSt3__111__wrap_iterIPKP4CaseEppB7v160006Ev, symObjAddr: 0x199E0, symBinAddr: 0x100021AC0, symSize: 0x20 }
  - { offsetInCU: 0x27E0F, offset: 0x573A6, size: 0x8, addend: 0x0, symName: __ZNKSt3__16vectorIP4CaseNS_9allocatorIS2_EEE11__make_iterB7v160006EPKS2_, symObjAddr: 0x19A00, symBinAddr: 0x100021AE0, symSize: 0x30 }
  - { offsetInCU: 0x27E44, offset: 0x573DB, size: 0x8, addend: 0x0, symName: __ZNSt3__111__wrap_iterIPKP4CaseEC1B7v160006EPKvS4_, symObjAddr: 0x19A30, symBinAddr: 0x100021B10, symSize: 0x30 }
  - { offsetInCU: 0x27E8A, offset: 0x57421, size: 0x8, addend: 0x0, symName: __ZNSt3__111__wrap_iterIPKP4CaseEC2B7v160006EPKvS4_, symObjAddr: 0x19A60, symBinAddr: 0x100021B40, symSize: 0x20 }
  - { offsetInCU: 0x27ED0, offset: 0x57467, size: 0x8, addend: 0x0, symName: __ZNKSt3__111__wrap_iterIPKP4CaseE4baseB7v160006Ev, symObjAddr: 0x19AC0, symBinAddr: 0x100021BA0, symSize: 0x20 }
  - { offsetInCU: 0x27EF6, offset: 0x5748D, size: 0x8, addend: 0x0, symName: __ZNSt3__14pairINS_6vectorIN2sf6SpriteENS_9allocatorIS3_EEEEiED2Ev, symObjAddr: 0x19AE0, symBinAddr: 0x100021BC0, symSize: 0x20 }
  - { offsetInCU: 0x27F22, offset: 0x574B9, size: 0x8, addend: 0x0, symName: __ZNSt3__112basic_stringIcNS_11char_traitsIcEENS_9allocatorIcEEE6appendB7v160006ERKS5_, symObjAddr: 0x19B50, symBinAddr: 0x100021C30, symSize: 0x50 }
  - { offsetInCU: 0x27F57, offset: 0x574EE, size: 0x8, addend: 0x0, symName: __ZNSt3__16vectorIN2sf6SpriteENS_9allocatorIS2_EEEixB7v160006Em, symObjAddr: 0x19BA0, symBinAddr: 0x100021C80, symSize: 0x20 }
  - { offsetInCU: 0x27F8E, offset: 0x57525, size: 0x8, addend: 0x0, symName: __ZN3Jeu8drawpionERN2sf12RenderWindowEP6JoueurS4_RKNSt3__16vectorINS0_7Vector2IfEENS5_9allocatorIS8_EEEERKNS5_12basic_stringIcNS5_11char_traitsIcEENS9_IcEEEE, symObjAddr: 0x19BC0, symBinAddr: 0x100021CA0, symSize: 0x880 }
  - { offsetInCU: 0x2811B, offset: 0x576B2, size: 0x8, addend: 0x0, symName: __ZNSt3__16vectorIN2sf6SpriteENS_9allocatorIS2_EEEC1Em, symObjAddr: 0x1A440, symBinAddr: 0x100022520, symSize: 0x30 }
  - { offsetInCU: 0x28156, offset: 0x576ED, size: 0x8, addend: 0x0, symName: __ZNSt3__16vectorIN2sf6SpriteENS_9allocatorIS2_EEE5beginB7v160006Ev, symObjAddr: 0x1A470, symBinAddr: 0x100022550, symSize: 0x30 }
  - { offsetInCU: 0x2817E, offset: 0x57715, size: 0x8, addend: 0x0, symName: __ZNSt3__16vectorIN2sf6SpriteENS_9allocatorIS2_EEE3endB7v160006Ev, symObjAddr: 0x1A4A0, symBinAddr: 0x100022580, symSize: 0x30 }
  - { offsetInCU: 0x281A6, offset: 0x5773D, size: 0x8, addend: 0x0, symName: __ZNKSt3__111__wrap_iterIPN2sf6SpriteEEdeB7v160006Ev, symObjAddr: 0x1A500, symBinAddr: 0x1000225E0, symSize: 0x20 }
  - { offsetInCU: 0x281CC, offset: 0x57763, size: 0x8, addend: 0x0, symName: __ZNSt3__111__wrap_iterIPN2sf6SpriteEEppB7v160006Ev, symObjAddr: 0x1A520, symBinAddr: 0x100022600, symSize: 0x20 }
  - { offsetInCU: 0x281F2, offset: 0x57789, size: 0x8, addend: 0x0, symName: __ZNSt3__16vectorIN2sf6SpriteENS_9allocatorIS2_EEEC2Em, symObjAddr: 0x1A540, symBinAddr: 0x100022620, symSize: 0xE0 }
  - { offsetInCU: 0x28243, offset: 0x577DA, size: 0x8, addend: 0x0, symName: __ZNSt3__16vectorIN2sf6SpriteENS_9allocatorIS2_EEE16__destroy_vectorC1ERS5_, symObjAddr: 0x1A660, symBinAddr: 0x100022740, symSize: 0x30 }
  - { offsetInCU: 0x2827C, offset: 0x57813, size: 0x8, addend: 0x0, symName: __ZNSt3__16vectorIN2sf6SpriteENS_9allocatorIS2_EEE18__construct_at_endEm, symObjAddr: 0x1A690, symBinAddr: 0x100022770, symSize: 0xC0 }
  - { offsetInCU: 0x282EE, offset: 0x57885, size: 0x8, addend: 0x0, symName: __ZNSt3__128__exception_guard_exceptionsINS_6vectorIN2sf6SpriteENS_9allocatorIS3_EEE16__destroy_vectorEE10__completeB7v160006Ev, symObjAddr: 0x1A750, symBinAddr: 0x100022830, symSize: 0x20 }
  - { offsetInCU: 0x28314, offset: 0x578AB, size: 0x8, addend: 0x0, symName: __ZNSt3__128__exception_guard_exceptionsINS_6vectorIN2sf6SpriteENS_9allocatorIS3_EEE16__destroy_vectorEED1B7v160006Ev, symObjAddr: 0x1A770, symBinAddr: 0x100022850, symSize: 0x20 }
  - { offsetInCU: 0x2833E, offset: 0x578D5, size: 0x8, addend: 0x0, symName: __ZNSt3__128__exception_guard_exceptionsINS_6vectorIN2sf6SpriteENS_9allocatorIS3_EEE16__destroy_vectorEEC1B7v160006ES7_, symObjAddr: 0x1A790, symBinAddr: 0x100022870, symSize: 0x30 }
  - { offsetInCU: 0x28376, offset: 0x5790D, size: 0x8, addend: 0x0, symName: __ZNSt3__128__exception_guard_exceptionsINS_6vectorIN2sf6SpriteENS_9allocatorIS3_EEE16__destroy_vectorEEC2B7v160006ES7_, symObjAddr: 0x1A7C0, symBinAddr: 0x1000228A0, symSize: 0x20 }
  - { offsetInCU: 0x283AE, offset: 0x57945, size: 0x8, addend: 0x0, symName: __ZNSt3__16vectorIN2sf6SpriteENS_9allocatorIS2_EEE16__destroy_vectorC2ERS5_, symObjAddr: 0x1A7E0, symBinAddr: 0x1000228C0, symSize: 0x20 }
  - { offsetInCU: 0x283E7, offset: 0x5797E, size: 0x8, addend: 0x0, symName: __ZNSt3__116allocator_traitsINS_9allocatorIN2sf6SpriteEEEE9constructB7v160006IS3_JEvEEvRS4_PT_DpOT0_, symObjAddr: 0x1A800, symBinAddr: 0x1000228E0, symSize: 0x30 }
  - { offsetInCU: 0x28429, offset: 0x579C0, size: 0x8, addend: 0x0, symName: __ZNSt3__19allocatorIN2sf6SpriteEE9constructB7v160006IS2_JEEEvPT_DpOT0_, symObjAddr: 0x1A830, symBinAddr: 0x100022910, symSize: 0x20 }
  - { offsetInCU: 0x2846B, offset: 0x57A02, size: 0x8, addend: 0x0, symName: __ZNSt3__128__exception_guard_exceptionsINS_6vectorIN2sf6SpriteENS_9allocatorIS3_EEE16__destroy_vectorEED2B7v160006Ev, symObjAddr: 0x1A850, symBinAddr: 0x100022930, symSize: 0x40 }
  - { offsetInCU: 0x28495, offset: 0x57A2C, size: 0x8, addend: 0x0, symName: __ZNSt3__16vectorIN2sf6SpriteENS_9allocatorIS2_EEE16__destroy_vectorclB7v160006Ev, symObjAddr: 0x1A890, symBinAddr: 0x100022970, symSize: 0x90 }
  - { offsetInCU: 0x284BB, offset: 0x57A52, size: 0x8, addend: 0x0, symName: __ZNKSt3__16vectorIN2sf6SpriteENS_9allocatorIS2_EEE17__annotate_deleteB7v160006Ev, symObjAddr: 0x1A920, symBinAddr: 0x100022A00, symSize: 0xC0 }
  - { offsetInCU: 0x284E1, offset: 0x57A78, size: 0x8, addend: 0x0, symName: __ZNSt3__16vectorIN2sf6SpriteENS_9allocatorIS2_EEE11__make_iterB7v160006EPS2_, symObjAddr: 0x1A9F0, symBinAddr: 0x100022AD0, symSize: 0x30 }
  - { offsetInCU: 0x28516, offset: 0x57AAD, size: 0x8, addend: 0x0, symName: __ZNSt3__111__wrap_iterIPN2sf6SpriteEEC1B7v160006EPKvS3_, symObjAddr: 0x1AA20, symBinAddr: 0x100022B00, symSize: 0x30 }
  - { offsetInCU: 0x2855C, offset: 0x57AF3, size: 0x8, addend: 0x0, symName: __ZNSt3__111__wrap_iterIPN2sf6SpriteEEC2B7v160006EPKvS3_, symObjAddr: 0x1AA50, symBinAddr: 0x100022B30, symSize: 0x20 }
  - { offsetInCU: 0x285A2, offset: 0x57B39, size: 0x8, addend: 0x0, symName: __ZNKSt3__111__wrap_iterIPN2sf6SpriteEE4baseB7v160006Ev, symObjAddr: 0x1AAB0, symBinAddr: 0x100022B90, symSize: 0x20 }
  - { offsetInCU: 0x285C8, offset: 0x57B5F, size: 0x8, addend: 0x0, symName: __ZN3Jeu12calculeScoreEP6JoueurS1_R7Tableau, symObjAddr: 0x1AAD0, symBinAddr: 0x100022BB0, symSize: 0x2A0 }
  - { offsetInCU: 0x286C9, offset: 0x57C60, size: 0x8, addend: 0x0, symName: __ZNK6JoueureqERKS_, symObjAddr: 0x1AD70, symBinAddr: 0x100022E50, symSize: 0x40 }
  - { offsetInCU: 0x286FD, offset: 0x57C94, size: 0x8, addend: 0x0, symName: __ZNK6JoueurltERKS_, symObjAddr: 0x1ADB0, symBinAddr: 0x100022E90, symSize: 0x40 }
  - { offsetInCU: 0x28731, offset: 0x57CC8, size: 0x8, addend: 0x0, symName: __ZN9Affichage10DrawgagnerERN2sf12RenderWindowERNS0_6SpriteE, symObjAddr: 0x1ADF0, symBinAddr: 0x100022ED0, symSize: 0x130 }
  - { offsetInCU: 0x28773, offset: 0x57D0A, size: 0x8, addend: 0x0, symName: __ZNSt3__16vectorIN2sf6SpriteENS_9allocatorIS2_EEED2B7v160006Ev, symObjAddr: 0x1AF20, symBinAddr: 0x100023000, symSize: 0x40 }
  - { offsetInCU: 0x2879D, offset: 0x57D34, size: 0x8, addend: 0x0, symName: __ZN6ButtonD2Ev, symObjAddr: 0x1AF60, symBinAddr: 0x100023040, symSize: 0x30 }
  - { offsetInCU: 0x287C9, offset: 0x57D60, size: 0x8, addend: 0x0, symName: __ZN4PionD2Ev, symObjAddr: 0x1AFE0, symBinAddr: 0x100023070, symSize: 0x40 }
  - { offsetInCU: 0x287F5, offset: 0x57D8C, size: 0x8, addend: 0x0, symName: __ZNSt3__16vectorIN2sf7Vector2IfEENS_9allocatorIS3_EEED2B7v160006Ev, symObjAddr: 0x1B020, symBinAddr: 0x1000230B0, symSize: 0x40 }
  - { offsetInCU: 0x2881F, offset: 0x57DB6, size: 0x8, addend: 0x0, symName: __ZN7TableauD2Ev, symObjAddr: 0x1B060, symBinAddr: 0x1000230F0, symSize: 0x30 }
  - { offsetInCU: 0x2884B, offset: 0x57DE2, size: 0x8, addend: 0x0, symName: __ZNSt3__15tupleIJbNS_12basic_stringIcNS_11char_traitsIcEENS_9allocatorIcEEEES6_N2sf4FontEEED2Ev, symObjAddr: 0x1B090, symBinAddr: 0x100023120, symSize: 0x20 }
  - { offsetInCU: 0x28878, offset: 0x57E0F, size: 0x8, addend: 0x0, symName: __ZNSt3__112__tuple_implINS_15__tuple_indicesIJLm0ELm1ELm2ELm3EEEEJbNS_12basic_stringIcNS_11char_traitsIcEENS_9allocatorIcEEEES8_N2sf4FontEEED1Ev, symObjAddr: 0x1B0B0, symBinAddr: 0x100023140, symSize: 0x20 }
  - { offsetInCU: 0x288A5, offset: 0x57E3C, size: 0x8, addend: 0x0, symName: __ZNSt3__112__tuple_implINS_15__tuple_indicesIJLm0ELm1ELm2ELm3EEEEJbNS_12basic_stringIcNS_11char_traitsIcEENS_9allocatorIcEEEES8_N2sf4FontEEED2Ev, symObjAddr: 0x1B0D0, symBinAddr: 0x100023160, symSize: 0x40 }
  - { offsetInCU: 0x288D2, offset: 0x57E69, size: 0x8, addend: 0x0, symName: __ZNSt3__112__tuple_leafILm3EN2sf4FontELb0EED2Ev, symObjAddr: 0x1B110, symBinAddr: 0x1000231A0, symSize: 0x1B }
  - { offsetInCU: 0x3F, offset: 0x58338, size: 0x8, addend: 0x0, symName: _diceTextures, symObjAddr: 0xA36F8, symBinAddr: 0x100030000, symSize: 0x0 }
  - { offsetInCU: 0xAC95, offset: 0x62F8E, size: 0x8, addend: 0x0, symName: __ZNSt3__13getB7v160006ILm0EJNS_6vectorIN2sf7Vector2IfEENS_9allocatorIS4_EEEENS3_IiEES8_S8_S4_S4_S4_S4_EEEONS_13tuple_elementIXT_ENS_5tupleIJDpT0_EEEE4typeEOSD_, symObjAddr: 0xCE0, symBinAddr: 0x100023EA0, symSize: 0x20 }
  - { offsetInCU: 0xACFB, offset: 0x62FF4, size: 0x8, addend: 0x0, symName: __ZNSt3__13getB7v160006ILm1EJNS_6vectorIN2sf7Vector2IfEENS_9allocatorIS4_EEEENS3_IiEES8_S8_S4_S4_S4_S4_EEEONS_13tuple_elementIXT_ENS_5tupleIJDpT0_EEEE4typeEOSD_, symObjAddr: 0xD00, symBinAddr: 0x100023EC0, symSize: 0x20 }
  - { offsetInCU: 0xAD61, offset: 0x6305A, size: 0x8, addend: 0x0, symName: __ZNSt3__13getB7v160006ILm2EJNS_6vectorIN2sf7Vector2IfEENS_9allocatorIS4_EEEENS3_IiEES8_S8_S4_S4_S4_S4_EEEONS_13tuple_elementIXT_ENS_5tupleIJDpT0_EEEE4typeEOSD_, symObjAddr: 0xD20, symBinAddr: 0x100023EE0, symSize: 0x20 }
  - { offsetInCU: 0xADC7, offset: 0x630C0, size: 0x8, addend: 0x0, symName: __ZNSt3__13getB7v160006ILm3EJNS_6vectorIN2sf7Vector2IfEENS_9allocatorIS4_EEEENS3_IiEES8_S8_S4_S4_S4_S4_EEEONS_13tuple_elementIXT_ENS_5tupleIJDpT0_EEEE4typeEOSD_, symObjAddr: 0xD40, symBinAddr: 0x100023F00, symSize: 0x20 }
  - { offsetInCU: 0xAE2D, offset: 0x63126, size: 0x8, addend: 0x0, symName: __ZNSt3__13getB7v160006ILm4EJNS_6vectorIN2sf7Vector2IfEENS_9allocatorIS4_EEEENS3_IiEES8_S8_S4_S4_S4_S4_EEEONS_13tuple_elementIXT_ENS_5tupleIJDpT0_EEEE4typeEOSD_, symObjAddr: 0xD60, symBinAddr: 0x100023F20, symSize: 0x20 }
  - { offsetInCU: 0xAE93, offset: 0x6318C, size: 0x8, addend: 0x0, symName: __ZNSt3__13getB7v160006ILm5EJNS_6vectorIN2sf7Vector2IfEENS_9allocatorIS4_EEEENS3_IiEES8_S8_S4_S4_S4_S4_EEEONS_13tuple_elementIXT_ENS_5tupleIJDpT0_EEEE4typeEOSD_, symObjAddr: 0xD80, symBinAddr: 0x100023F40, symSize: 0x20 }
  - { offsetInCU: 0xAEF9, offset: 0x631F2, size: 0x8, addend: 0x0, symName: __ZNSt3__13getB7v160006ILm6EJNS_6vectorIN2sf7Vector2IfEENS_9allocatorIS4_EEEENS3_IiEES8_S8_S4_S4_S4_S4_EEEONS_13tuple_elementIXT_ENS_5tupleIJDpT0_EEEE4typeEOSD_, symObjAddr: 0xDA0, symBinAddr: 0x100023F60, symSize: 0x20 }
  - { offsetInCU: 0xAF5F, offset: 0x63258, size: 0x8, addend: 0x0, symName: __ZNSt3__13getB7v160006ILm7EJNS_6vectorIN2sf7Vector2IfEENS_9allocatorIS4_EEEENS3_IiEES8_S8_S4_S4_S4_S4_EEEONS_13tuple_elementIXT_ENS_5tupleIJDpT0_EEEE4typeEOSD_, symObjAddr: 0xDC0, symBinAddr: 0x100023F80, symSize: 0x20 }
  - { offsetInCU: 0xB9C3, offset: 0x63CBC, size: 0x8, addend: 0x0, symName: __ZNSt3__19make_pairB7v160006IRNS_6vectorIN2sf6SpriteENS_9allocatorIS3_EEEERiEENS_4pairINS_18__unwrap_ref_decayIT_E4typeENSA_IT0_E4typeEEEOSB_OSE_, symObjAddr: 0x1950, symBinAddr: 0x100024830, symSize: 0x40 }
  - { offsetInCU: 0xBA12, offset: 0x63D0B, size: 0x8, addend: 0x0, symName: __ZNSt3__110make_tupleB7v160006IJRNS_6vectorIN2sf7Vector2IfEENS_9allocatorIS4_EEEERNS3_IiEESA_SA_RS4_SB_SB_SB_EEENS_5tupleIJDpNS_18__unwrap_ref_decayIT_E4typeEEEEDpOSE_, symObjAddr: 0x1D10, symBinAddr: 0x100024B00, symSize: 0x70 }
  - { offsetInCU: 0xBB0F, offset: 0x63E08, size: 0x8, addend: 0x0, symName: __ZNSt3__142__uninitialized_allocator_move_if_noexceptB7v160006INS_9allocatorIN2sf7Vector2IfEEEENS_16reverse_iteratorIPS4_EES8_S4_vEET1_RT_T0_SC_S9_, symObjAddr: 0x60F0, symBinAddr: 0x100025830, symSize: 0x70 }
  - { offsetInCU: 0xBB8C, offset: 0x63E85, size: 0x8, addend: 0x0, symName: __ZNSt3__14swapB7v160006IPN2sf7Vector2IfEEEENS_9enable_ifIXaasr21is_move_constructibleIT_EE5valuesr18is_move_assignableIS6_EE5valueEvE4typeERS6_S9_, symObjAddr: 0x6160, symBinAddr: 0x1000258A0, symSize: 0x40 }
  - { offsetInCU: 0xBBDE, offset: 0x63ED7, size: 0x8, addend: 0x0, symName: __ZNSt3__125__debug_db_invalidate_allB7v160006INS_6vectorIN2sf7Vector2IfEENS_9allocatorIS4_EEEEEEvPT_, symObjAddr: 0x61A0, symBinAddr: 0x1000258E0, symSize: 0x10 }
  - { offsetInCU: 0xBC0F, offset: 0x63F08, size: 0x8, addend: 0x0, symName: __ZNSt3__14moveB7v160006INS_16reverse_iteratorIPN2sf7Vector2IfEEEES6_EET0_T_S8_S7_, symObjAddr: 0x61B0, symBinAddr: 0x1000258F0, symSize: 0x80 }
  - { offsetInCU: 0xBC69, offset: 0x63F62, size: 0x8, addend: 0x0, symName: __ZNSt3__16__moveB7v160006INS_17_ClassicAlgPolicyENS_16reverse_iteratorIPN2sf7Vector2IfEEEES7_S7_EENS_4pairIT0_T2_EES9_T1_SA_, symObjAddr: 0x6230, symBinAddr: 0x100025970, symSize: 0x90 }
  - { offsetInCU: 0xBCD5, offset: 0x63FCE, size: 0x8, addend: 0x0, symName: __ZNSt3__123__dispatch_copy_or_moveB7v160006INS_17_ClassicAlgPolicyENS_11__move_loopIS1_EENS_14__move_trivialENS_16reverse_iteratorIPN2sf7Vector2IfEEEESA_SA_EENS_4pairIT2_T4_EESC_T3_SD_, symObjAddr: 0x62C0, symBinAddr: 0x100025A00, symSize: 0x90 }
  - { offsetInCU: 0xBD53, offset: 0x6404C, size: 0x8, addend: 0x0, symName: __ZNSt3__121__unwrap_and_dispatchB7v160006INS_10__overloadINS_11__move_loopINS_17_ClassicAlgPolicyEEENS_14__move_trivialEEENS_16reverse_iteratorIPN2sf7Vector2IfEEEESC_SC_Li0EEENS_4pairIT0_T2_EESE_T1_SF_, symObjAddr: 0x6350, symBinAddr: 0x100025A90, symSize: 0x210 }
  - { offsetInCU: 0xBDE4, offset: 0x640DD, size: 0x8, addend: 0x0, symName: __ZNSt3__114__unwrap_rangeB7v160006INS_16reverse_iteratorIPN2sf7Vector2IfEEEES6_EENS_4pairIT0_S8_EET_SA_, symObjAddr: 0x6560, symBinAddr: 0x100025CA0, symSize: 0x90 }
  - { offsetInCU: 0xBF56, offset: 0x6424F, size: 0x8, addend: 0x0, symName: __ZNSt3__113__unwrap_iterB7v160006INS_16reverse_iteratorIPN2sf7Vector2IfEEEENS_18__unwrap_iter_implIS6_Lb0EEELi0EEEDTclsrT0_8__unwrapclsr3stdE7declvalIT_EEEESA_, symObjAddr: 0x6690, symBinAddr: 0x100025DD0, symSize: 0x40 }
  - { offsetInCU: 0xBF9A, offset: 0x64293, size: 0x8, addend: 0x0, symName: __ZNSt3__19make_pairB7v160006INS_16reverse_iteratorIPN2sf7Vector2IfEEEES6_EENS_4pairINS_18__unwrap_ref_decayIT_E4typeENS8_IT0_E4typeEEEOS9_OSC_, symObjAddr: 0x66D0, symBinAddr: 0x100025E10, symSize: 0x30 }
  - { offsetInCU: 0xBFE9, offset: 0x642E2, size: 0x8, addend: 0x0, symName: __ZNSt3__114__rewrap_rangeB7v160006INS_16reverse_iteratorIPN2sf7Vector2IfEEEES6_EET_S7_T0_, symObjAddr: 0x6700, symBinAddr: 0x100025E40, symSize: 0x60 }
  - { offsetInCU: 0xC035, offset: 0x6432E, size: 0x8, addend: 0x0, symName: __ZNSt3__113__rewrap_iterB7v160006INS_16reverse_iteratorIPN2sf7Vector2IfEEEES6_NS_18__unwrap_iter_implIS6_Lb0EEEEET_S9_T0_, symObjAddr: 0x6760, symBinAddr: 0x100025EA0, symSize: 0x70 }
  - { offsetInCU: 0xC13C, offset: 0x64435, size: 0x8, addend: 0x0, symName: __ZNSt3__119__debug_db_insert_cB7v160006INS_6vectorIN2sf7TextureENS_9allocatorIS3_EEEEEEvPT_, symObjAddr: 0x6B00, symBinAddr: 0x100026240, symSize: 0x10 }
  - { offsetInCU: 0xC16D, offset: 0x64466, size: 0x8, addend: 0x0, symName: __ZNSt3__118__debug_db_erase_cB7v160006INS_6vectorIN2sf7TextureENS_9allocatorIS3_EEEEEEvPT_, symObjAddr: 0x6D90, symBinAddr: 0x1000264D0, symSize: 0x10 }
  - { offsetInCU: 0xC19E, offset: 0x64497, size: 0x8, addend: 0x0, symName: __ZNSt3__112__to_addressB7v160006IN2sf7TextureEEEPT_S4_, symObjAddr: 0x6EC0, symBinAddr: 0x100026600, symSize: 0x10 }
  - { offsetInCU: 0xC1D3, offset: 0x644CC, size: 0x8, addend: 0x0, symName: __ZNSt3__125__debug_db_invalidate_allB7v160006INS_6vectorIN2sf7TextureENS_9allocatorIS3_EEEEEEvPT_, symObjAddr: 0x77B0, symBinAddr: 0x100026850, symSize: 0x10 }
  - { offsetInCU: 0xC204, offset: 0x644FD, size: 0x8, addend: 0x0, symName: __ZNSt3__119__allocate_at_leastB7v160006INS_9allocatorIN2sf7TextureEEEEENS_19__allocation_resultINS_16allocator_traitsIT_E7pointerEEERS7_m, symObjAddr: 0x7EB0, symBinAddr: 0x100026F50, symSize: 0x40 }
  - { offsetInCU: 0xC247, offset: 0x64540, size: 0x8, addend: 0x0, symName: __ZNSt3__142__uninitialized_allocator_move_if_noexceptB7v160006INS_9allocatorIN2sf7TextureEEENS_16reverse_iteratorIPS3_EES7_S7_EET2_RT_T0_T1_S8_, symObjAddr: 0x8040, symBinAddr: 0x1000270E0, symSize: 0x180 }
  - { offsetInCU: 0xC2E6, offset: 0x645DF, size: 0x8, addend: 0x0, symName: __ZNSt3__14swapB7v160006IPN2sf7TextureEEENS_9enable_ifIXaasr21is_move_constructibleIT_EE5valuesr18is_move_assignableIS5_EE5valueEvE4typeERS5_S8_, symObjAddr: 0x8210, symBinAddr: 0x1000272B0, symSize: 0x40 }
  - { offsetInCU: 0xC338, offset: 0x64631, size: 0x8, addend: 0x0, symName: __ZNSt3__122__make_exception_guardB7v160006INS_29_AllocatorDestroyRangeReverseINS_9allocatorIN2sf7TextureEEENS_16reverse_iteratorIPS4_EEEEEENS_28__exception_guard_exceptionsIT_EESB_, symObjAddr: 0x82F0, symBinAddr: 0x100027390, symSize: 0x60 }
  - { offsetInCU: 0xC36D, offset: 0x64666, size: 0x8, addend: 0x0, symName: __ZNSt3__1neB7v160006IPN2sf7TextureES3_EEbRKNS_16reverse_iteratorIT_EERKNS4_IT0_EE, symObjAddr: 0x8390, symBinAddr: 0x100027430, symSize: 0x40 }
  - { offsetInCU: 0xC3B9, offset: 0x646B2, size: 0x8, addend: 0x0, symName: __ZNSt3__112__to_addressB7v160006INS_16reverse_iteratorIPN2sf7TextureEEEvEENS_5decayIDTclsr19__to_address_helperIT_EE6__callclsr3stdE7declvalIRKS7_EEEEE4typeES9_, symObjAddr: 0x83D0, symBinAddr: 0x100027470, symSize: 0x20 }
  - { offsetInCU: 0xC419, offset: 0x64712, size: 0x8, addend: 0x0, symName: __ZNSt3__119__allocator_destroyB7v160006INS_9allocatorIN2sf7TextureEEENS_16reverse_iteratorINS5_IPS3_EEEES8_EEvRT_T0_T1_, symObjAddr: 0x86C0, symBinAddr: 0x100027760, symSize: 0x70 }
  - { offsetInCU: 0xC47C, offset: 0x64775, size: 0x8, addend: 0x0, symName: __ZNSt3__1neB7v160006INS_16reverse_iteratorIPN2sf7TextureEEES5_EEbRKNS1_IT_EERKNS1_IT0_EE, symObjAddr: 0x8760, symBinAddr: 0x100027800, symSize: 0x50 }
  - { offsetInCU: 0xC4C8, offset: 0x647C1, size: 0x8, addend: 0x0, symName: __ZNSt3__112__to_addressB7v160006INS_16reverse_iteratorINS1_IPN2sf7TextureEEEEEvEENS_5decayIDTclsr19__to_address_helperIT_EE6__callclsr3stdE7declvalIRKS8_EEEEE4typeESA_, symObjAddr: 0x87B0, symBinAddr: 0x100027850, symSize: 0x20 }
  - { offsetInCU: 0xC528, offset: 0x64821, size: 0x8, addend: 0x0, symName: __ZNSt3__142__uninitialized_allocator_move_if_noexceptB7v160006INS_9allocatorIN2sf6SpriteEEENS_16reverse_iteratorIPS3_EES7_S7_EET2_RT_T0_T1_S8_, symObjAddr: 0x9100, symBinAddr: 0x100028100, symSize: 0x170 }
  - { offsetInCU: 0xC5C7, offset: 0x648C0, size: 0x8, addend: 0x0, symName: __ZNSt3__14swapB7v160006IPN2sf6SpriteEEENS_9enable_ifIXaasr21is_move_constructibleIT_EE5valuesr18is_move_assignableIS5_EE5valueEvE4typeERS5_S8_, symObjAddr: 0x9270, symBinAddr: 0x100028270, symSize: 0x40 }
  - { offsetInCU: 0xC619, offset: 0x64912, size: 0x8, addend: 0x0, symName: __ZNSt3__122__make_exception_guardB7v160006INS_29_AllocatorDestroyRangeReverseINS_9allocatorIN2sf6SpriteEEENS_16reverse_iteratorIPS4_EEEEEENS_28__exception_guard_exceptionsIT_EESB_, symObjAddr: 0x92B0, symBinAddr: 0x1000282B0, symSize: 0x60 }
  - { offsetInCU: 0xC64E, offset: 0x64947, size: 0x8, addend: 0x0, symName: __ZNSt3__119__allocator_destroyB7v160006INS_9allocatorIN2sf6SpriteEEENS_16reverse_iteratorINS5_IPS3_EEEES8_EEvRT_T0_T1_, symObjAddr: 0x9680, symBinAddr: 0x100028680, symSize: 0x70 }
  - { offsetInCU: 0xC6B1, offset: 0x649AA, size: 0x8, addend: 0x0, symName: __ZNSt3__1neB7v160006INS_16reverse_iteratorIPN2sf6SpriteEEES5_EEbRKNS1_IT_EERKNS1_IT0_EE, symObjAddr: 0x9720, symBinAddr: 0x100028720, symSize: 0x50 }
  - { offsetInCU: 0xC6FD, offset: 0x649F6, size: 0x8, addend: 0x0, symName: __ZNSt3__112__to_addressB7v160006INS_16reverse_iteratorINS1_IPN2sf6SpriteEEEEEvEENS_5decayIDTclsr19__to_address_helperIT_EE6__callclsr3stdE7declvalIRKS8_EEEEE4typeESA_, symObjAddr: 0x9770, symBinAddr: 0x100028770, symSize: 0x20 }
  - { offsetInCU: 0xC973, offset: 0x64C6C, size: 0x8, addend: 0x0, symName: __ZN2sfeqIfEEbRKNS_7Vector2IT_EES5_, symObjAddr: 0xE70, symBinAddr: 0x100023FA0, symSize: 0x60 }
  - { offsetInCU: 0xC9B6, offset: 0x64CAF, size: 0x8, addend: 0x0, symName: __ZN2sfplIfEENS_7Vector2IT_EERKS3_S5_, symObjAddr: 0xED0, symBinAddr: 0x100024000, symSize: 0x50 }
  - { offsetInCU: 0xD3F5, offset: 0x656EE, size: 0x8, addend: 0x0, symName: __ZNSt3__16vectorIN2sf7Vector2IfEENS_9allocatorIS3_EEE26__swap_out_circular_bufferERNS_14__split_bufferIS3_RS5_EE, symObjAddr: 0x5D20, symBinAddr: 0x1000254E0, symSize: 0x130 }
  - { offsetInCU: 0xD4CE, offset: 0x657C7, size: 0x8, addend: 0x0, symName: __ZNSt3__16vectorIN2sf7TextureENS_9allocatorIS2_EEE26__swap_out_circular_bufferERNS_14__split_bufferIS2_RS4_EE, symObjAddr: 0x7B60, symBinAddr: 0x100026C00, symSize: 0x130 }
  - { offsetInCU: 0xD561, offset: 0x6585A, size: 0x8, addend: 0x0, symName: __ZNSt3__16vectorIN2sf6SpriteENS_9allocatorIS2_EEE26__swap_out_circular_bufferERNS_14__split_bufferIS2_RS4_EE, symObjAddr: 0x8DB0, symBinAddr: 0x100027DB0, symSize: 0x130 }
  - { offsetInCU: 0xFD13, offset: 0x6800C, size: 0x8, addend: 0x0, symName: __ZN7Tableau9getPointsEv, symObjAddr: 0x0, symBinAddr: 0x1000231C0, symSize: 0x7C0 }
  - { offsetInCU: 0xFE0C, offset: 0x68105, size: 0x8, addend: 0x0, symName: __ZN7Tableau19initializePositionsEv, symObjAddr: 0x7C0, symBinAddr: 0x100023980, symSize: 0x520 }
  - { offsetInCU: 0xFF21, offset: 0x6821A, size: 0x8, addend: 0x0, symName: __ZNSt3__16vectorIN2sf7Vector2IfEENS_9allocatorIS3_EEE9push_backB7v160006ERKS3_, symObjAddr: 0xF20, symBinAddr: 0x100024050, symSize: 0x60 }
  - { offsetInCU: 0xFFF8, offset: 0x682F1, size: 0x8, addend: 0x0, symName: __ZN2sf11CircleShapeD1Ev, symObjAddr: 0xF80, symBinAddr: 0x1000240B0, symSize: 0x20 }
  - { offsetInCU: 0x10024, offset: 0x6831D, size: 0x8, addend: 0x0, symName: __ZNSt3__15tupleIJNS_6vectorIN2sf7Vector2IfEENS_9allocatorIS4_EEEENS3_IiEES8_S8_S4_S4_S4_S4_EED1Ev, symObjAddr: 0xFE0, symBinAddr: 0x1000240D0, symSize: 0x20 }
  - { offsetInCU: 0x10051, offset: 0x6834A, size: 0x8, addend: 0x0, symName: __ZNSt3__16vectorIN2sf7TextureENS_9allocatorIS2_EEEC1B7v160006Ev, symObjAddr: 0x1000, symBinAddr: 0x1000240F0, symSize: 0x20 }
  - { offsetInCU: 0x1007B, offset: 0x68374, size: 0x8, addend: 0x0, symName: __ZNSt3__16vectorIN2sf7TextureENS_9allocatorIS2_EEED1B7v160006Ev, symObjAddr: 0x1020, symBinAddr: 0x100024110, symSize: 0x20 }
  - { offsetInCU: 0x100A5, offset: 0x6839E, size: 0x8, addend: 0x0, symName: __ZN7Tableau21initializeDiceSpritesER3DesN2sf7Vector2IfEERiNSt3__16vectorIS4_NS6_9allocatorIS4_EEEEP6JoueurRNS2_12RenderWindowE, symObjAddr: 0x1040, symBinAddr: 0x100024130, symSize: 0x5B0 }
  - { offsetInCU: 0x10233, offset: 0x6852C, size: 0x8, addend: 0x0, symName: __ZNSt3__16vectorIN2sf7TextureENS_9allocatorIS2_EEE5clearB7v160006Ev, symObjAddr: 0x16E0, symBinAddr: 0x1000246E0, symSize: 0x50 }
  - { offsetInCU: 0x10268, offset: 0x68561, size: 0x8, addend: 0x0, symName: __ZNSt3__16vectorINS_12basic_stringIcNS_11char_traitsIcEENS_9allocatorIcEEEENS4_IS6_EEEixB7v160006Em, symObjAddr: 0x1760, symBinAddr: 0x100024730, symSize: 0x20 }
  - { offsetInCU: 0x1029F, offset: 0x68598, size: 0x8, addend: 0x0, symName: __ZNSt3__16vectorIN2sf7TextureENS_9allocatorIS2_EEE9push_backB7v160006ERKS2_, symObjAddr: 0x17A0, symBinAddr: 0x100024750, symSize: 0x60 }
  - { offsetInCU: 0x102D6, offset: 0x685CF, size: 0x8, addend: 0x0, symName: __ZNSt3__16vectorIN2sf7TextureENS_9allocatorIS2_EEEixB7v160006Em, symObjAddr: 0x1800, symBinAddr: 0x1000247B0, symSize: 0x20 }
  - { offsetInCU: 0x1030D, offset: 0x68606, size: 0x8, addend: 0x0, symName: __ZNSt3__16vectorIN2sf6SpriteENS_9allocatorIS2_EEE9push_backB7v160006ERKS2_, symObjAddr: 0x1820, symBinAddr: 0x1000247D0, symSize: 0x60 }
  - { offsetInCU: 0x10349, offset: 0x68642, size: 0x8, addend: 0x0, symName: __ZN2sf7Vector2IiEC1Eii, symObjAddr: 0x1A80, symBinAddr: 0x100024870, symSize: 0x30 }
  - { offsetInCU: 0x10391, offset: 0x6868A, size: 0x8, addend: 0x0, symName: __ZN7Tableau9placementERNSt3__16vectorIN2sf7Vector2IfEENS0_9allocatorIS4_EEEERS4_S9_RNS3_IiEESB_SB_RfSC_SC_SC_RNS2_7TextureERNS2_6SpriteERNS2_12RenderWindowE, symObjAddr: 0x1AB0, symBinAddr: 0x1000248A0, symSize: 0x260 }
  - { offsetInCU: 0x10582, offset: 0x6887B, size: 0x8, addend: 0x0, symName: __ZN2sf7Vector2IiEC2Eii, symObjAddr: 0x2300, symBinAddr: 0x100024B70, symSize: 0x20 }
  - { offsetInCU: 0x105CA, offset: 0x688C3, size: 0x8, addend: 0x0, symName: __ZNSt3__16vectorIN2sf7Vector2IfEENS_9allocatorIS3_EEE4backB7v160006Ev, symObjAddr: 0x2320, symBinAddr: 0x100024B90, symSize: 0x20 }
  - { offsetInCU: 0x105F0, offset: 0x688E9, size: 0x8, addend: 0x0, symName: __ZNSt3__15tupleIJNS_6vectorIN2sf7Vector2IfEENS_9allocatorIS4_EEEENS3_IiEES8_S8_S4_S4_S4_S4_EEC1B7v160006IJRS7_RS8_SC_SC_RS4_SD_SD_SD_ELi0EEEDpOT_, symObjAddr: 0x2340, symBinAddr: 0x100024BB0, symSize: 0x70 }
  - { offsetInCU: 0x106C6, offset: 0x689BF, size: 0x8, addend: 0x0, symName: __ZNSt3__15tupleIJNS_6vectorIN2sf7Vector2IfEENS_9allocatorIS4_EEEENS3_IiEES8_S8_S4_S4_S4_S4_EEC2B7v160006IJRS7_RS8_SC_SC_RS4_SD_SD_SD_ELi0EEEDpOT_, symObjAddr: 0x23B0, symBinAddr: 0x100024C20, symSize: 0x70 }
  - { offsetInCU: 0x1079C, offset: 0x68A95, size: 0x8, addend: 0x0, symName: __ZNSt3__112__tuple_implINS_15__tuple_indicesIJLm0ELm1ELm2ELm3ELm4ELm5ELm6ELm7EEEEJNS_6vectorIN2sf7Vector2IfEENS_9allocatorIS6_EEEENS5_IiEESA_SA_S6_S6_S6_S6_EEC1B7v160006IJLm0ELm1ELm2ELm3ELm4ELm5ELm6ELm7EEJS9_SA_SA_SA_S6_S6_S6_S6_EJEJEJRS9_RSA_SE_SE_RS6_SF_SF_SF_EEENS1_IJXspT_EEEENS_13__tuple_typesIJDpT0_EEENS1_IJXspT1_EEEENSH_IJDpT2_EEEDpOT3_, symObjAddr: 0x2420, symBinAddr: 0x100024C90, symSize: 0x70 }
  - { offsetInCU: 0x1090C, offset: 0x68C05, size: 0x8, addend: 0x0, symName: __ZNSt3__112__tuple_implINS_15__tuple_indicesIJLm0ELm1ELm2ELm3ELm4ELm5ELm6ELm7EEEEJNS_6vectorIN2sf7Vector2IfEENS_9allocatorIS6_EEEENS5_IiEESA_SA_S6_S6_S6_S6_EEC2B7v160006IJLm0ELm1ELm2ELm3ELm4ELm5ELm6ELm7EEJS9_SA_SA_SA_S6_S6_S6_S6_EJEJEJRS9_RSA_SE_SE_RS6_SF_SF_SF_EEENS1_IJXspT_EEEENS_13__tuple_typesIJDpT0_EEENS1_IJXspT1_EEEENSH_IJDpT2_EEEDpOT3_, symObjAddr: 0x2490, symBinAddr: 0x100024D00, symSize: 0xC0 }
  - { offsetInCU: 0x10A7C, offset: 0x68D75, size: 0x8, addend: 0x0, symName: __ZNSt3__112__tuple_leafILm0ENS_6vectorIN2sf7Vector2IfEENS_9allocatorIS4_EEEELb0EEC2B7v160006IRS7_vEEOT_, symObjAddr: 0x2550, symBinAddr: 0x100024DC0, symSize: 0x30 }
  - { offsetInCU: 0x10ABF, offset: 0x68DB8, size: 0x8, addend: 0x0, symName: __ZNSt3__112__tuple_leafILm1EN2sf7Vector2IiEELb0EEC2B7v160006IRS3_vEEOT_, symObjAddr: 0x2580, symBinAddr: 0x100024DF0, symSize: 0x20 }
  - { offsetInCU: 0x10B02, offset: 0x68DFB, size: 0x8, addend: 0x0, symName: __ZNSt3__112__tuple_leafILm2EN2sf7Vector2IiEELb0EEC2B7v160006IRS3_vEEOT_, symObjAddr: 0x25A0, symBinAddr: 0x100024E10, symSize: 0x20 }
  - { offsetInCU: 0x10B45, offset: 0x68E3E, size: 0x8, addend: 0x0, symName: __ZNSt3__112__tuple_leafILm3EN2sf7Vector2IiEELb0EEC2B7v160006IRS3_vEEOT_, symObjAddr: 0x25C0, symBinAddr: 0x100024E30, symSize: 0x20 }
  - { offsetInCU: 0x10B88, offset: 0x68E81, size: 0x8, addend: 0x0, symName: __ZNSt3__112__tuple_leafILm4EN2sf7Vector2IfEELb0EEC2B7v160006IRS3_vEEOT_, symObjAddr: 0x25E0, symBinAddr: 0x100024E50, symSize: 0x20 }
  - { offsetInCU: 0x10BCB, offset: 0x68EC4, size: 0x8, addend: 0x0, symName: __ZNSt3__112__tuple_leafILm5EN2sf7Vector2IfEELb0EEC2B7v160006IRS3_vEEOT_, symObjAddr: 0x2600, symBinAddr: 0x100024E70, symSize: 0x20 }
  - { offsetInCU: 0x10C0E, offset: 0x68F07, size: 0x8, addend: 0x0, symName: __ZNSt3__112__tuple_leafILm6EN2sf7Vector2IfEELb0EEC2B7v160006IRS3_vEEOT_, symObjAddr: 0x2620, symBinAddr: 0x100024E90, symSize: 0x20 }
  - { offsetInCU: 0x10C51, offset: 0x68F4A, size: 0x8, addend: 0x0, symName: __ZNSt3__112__tuple_leafILm7EN2sf7Vector2IfEELb0EEC2B7v160006IRS3_vEEOT_, symObjAddr: 0x2640, symBinAddr: 0x100024EB0, symSize: 0x20 }
  - { offsetInCU: 0x10CBC, offset: 0x68FB5, size: 0x8, addend: 0x0, symName: __ZNSt3__112__tuple_leafILm0ENS_6vectorIN2sf7Vector2IfEENS_9allocatorIS4_EEEELb0EE3getB7v160006Ev, symObjAddr: 0x3A20, symBinAddr: 0x100024ED0, symSize: 0x10 }
  - { offsetInCU: 0x10CE2, offset: 0x68FDB, size: 0x8, addend: 0x0, symName: __ZNSt3__112__tuple_leafILm1EN2sf7Vector2IiEELb0EE3getB7v160006Ev, symObjAddr: 0x3A30, symBinAddr: 0x100024EE0, symSize: 0x10 }
  - { offsetInCU: 0x10D08, offset: 0x69001, size: 0x8, addend: 0x0, symName: __ZNSt3__112__tuple_leafILm2EN2sf7Vector2IiEELb0EE3getB7v160006Ev, symObjAddr: 0x3A40, symBinAddr: 0x100024EF0, symSize: 0x10 }
  - { offsetInCU: 0x10D2E, offset: 0x69027, size: 0x8, addend: 0x0, symName: __ZNSt3__112__tuple_leafILm3EN2sf7Vector2IiEELb0EE3getB7v160006Ev, symObjAddr: 0x3A50, symBinAddr: 0x100024F00, symSize: 0x10 }
  - { offsetInCU: 0x10D54, offset: 0x6904D, size: 0x8, addend: 0x0, symName: __ZNSt3__112__tuple_leafILm4EN2sf7Vector2IfEELb0EE3getB7v160006Ev, symObjAddr: 0x3A60, symBinAddr: 0x100024F10, symSize: 0x10 }
  - { offsetInCU: 0x10D7A, offset: 0x69073, size: 0x8, addend: 0x0, symName: __ZNSt3__112__tuple_leafILm5EN2sf7Vector2IfEELb0EE3getB7v160006Ev, symObjAddr: 0x3A70, symBinAddr: 0x100024F20, symSize: 0x10 }
  - { offsetInCU: 0x10DA0, offset: 0x69099, size: 0x8, addend: 0x0, symName: __ZNSt3__112__tuple_leafILm6EN2sf7Vector2IfEELb0EE3getB7v160006Ev, symObjAddr: 0x3A80, symBinAddr: 0x100024F30, symSize: 0x10 }
  - { offsetInCU: 0x10DC6, offset: 0x690BF, size: 0x8, addend: 0x0, symName: __ZNSt3__112__tuple_leafILm7EN2sf7Vector2IfEELb0EE3getB7v160006Ev, symObjAddr: 0x3A90, symBinAddr: 0x100024F40, symSize: 0x10 }
  - { offsetInCU: 0x10DEC, offset: 0x690E5, size: 0x8, addend: 0x0, symName: __ZN2sf11CircleShapeD2Ev, symObjAddr: 0x3AA0, symBinAddr: 0x100024F50, symSize: 0x20 }
  - { offsetInCU: 0x10E18, offset: 0x69111, size: 0x8, addend: 0x0, symName: __ZThn8_N2sf11CircleShapeD1Ev, symObjAddr: 0x3AC0, symBinAddr: 0x100024F70, symSize: 0x20 }
  - { offsetInCU: 0x10E2E, offset: 0x69127, size: 0x8, addend: 0x0, symName: __ZNSt3__15tupleIJNS_6vectorIN2sf7Vector2IfEENS_9allocatorIS4_EEEENS3_IiEES8_S8_S4_S4_S4_S4_EED2Ev, symObjAddr: 0x3B20, symBinAddr: 0x100024F90, symSize: 0x20 }
  - { offsetInCU: 0x10E5B, offset: 0x69154, size: 0x8, addend: 0x0, symName: __ZNSt3__112__tuple_implINS_15__tuple_indicesIJLm0ELm1ELm2ELm3ELm4ELm5ELm6ELm7EEEEJNS_6vectorIN2sf7Vector2IfEENS_9allocatorIS6_EEEENS5_IiEESA_SA_S6_S6_S6_S6_EED1Ev, symObjAddr: 0x3B40, symBinAddr: 0x100024FB0, symSize: 0x20 }
  - { offsetInCU: 0x10E88, offset: 0x69181, size: 0x8, addend: 0x0, symName: __ZNSt3__112__tuple_implINS_15__tuple_indicesIJLm0ELm1ELm2ELm3ELm4ELm5ELm6ELm7EEEEJNS_6vectorIN2sf7Vector2IfEENS_9allocatorIS6_EEEENS5_IiEESA_SA_S6_S6_S6_S6_EED2Ev, symObjAddr: 0x3B60, symBinAddr: 0x100024FD0, symSize: 0x20 }
  - { offsetInCU: 0x10EB5, offset: 0x691AE, size: 0x8, addend: 0x0, symName: __ZNSt3__112__tuple_leafILm0ENS_6vectorIN2sf7Vector2IfEENS_9allocatorIS4_EEEELb0EED2Ev, symObjAddr: 0x3B80, symBinAddr: 0x100024FF0, symSize: 0x20 }
  - { offsetInCU: 0x10EE2, offset: 0x691DB, size: 0x8, addend: 0x0, symName: __ZNSt3__14pairINS_6vectorIN2sf6SpriteENS_9allocatorIS3_EEEEiEC1B7v160006IRS6_RiLPv0EEEOT_OT0_, symObjAddr: 0x3C00, symBinAddr: 0x100025010, symSize: 0x30 }
  - { offsetInCU: 0x10F40, offset: 0x69239, size: 0x8, addend: 0x0, symName: __ZNSt3__14pairINS_6vectorIN2sf6SpriteENS_9allocatorIS3_EEEEiEC2B7v160006IRS6_RiLPv0EEEOT_OT0_, symObjAddr: 0x3C30, symBinAddr: 0x100025040, symSize: 0x40 }
  - { offsetInCU: 0x10F9E, offset: 0x69297, size: 0x8, addend: 0x0, symName: __ZNSt3__16vectorIN2sf6SpriteENS_9allocatorIS2_EEEC1ERKS5_, symObjAddr: 0x3C70, symBinAddr: 0x100025080, symSize: 0x30 }
  - { offsetInCU: 0x10FD9, offset: 0x692D2, size: 0x8, addend: 0x0, symName: __ZNSt3__16vectorIN2sf6SpriteENS_9allocatorIS2_EEEC2ERKS5_, symObjAddr: 0x3CA0, symBinAddr: 0x1000250B0, symSize: 0x110 }
  - { offsetInCU: 0x11044, offset: 0x6933D, size: 0x8, addend: 0x0, symName: __ZNSt3__116allocator_traitsINS_9allocatorIN2sf6SpriteEEEE37select_on_container_copy_constructionB7v160006IS4_vvEES4_RKS4_, symObjAddr: 0x3DB0, symBinAddr: 0x1000251C0, symSize: 0x10 }
  - { offsetInCU: 0x11078, offset: 0x69371, size: 0x8, addend: 0x0, symName: __ZNSt3__117__compressed_pairIPN2sf6SpriteENS_9allocatorIS2_EEEC1B7v160006IDnS5_EEOT_OT0_, symObjAddr: 0x3DE0, symBinAddr: 0x1000251D0, symSize: 0x30 }
  - { offsetInCU: 0x110D0, offset: 0x693C9, size: 0x8, addend: 0x0, symName: __ZNSt3__117__compressed_pairIPN2sf6SpriteENS_9allocatorIS2_EEEC2B7v160006IDnS5_EEOT_OT0_, symObjAddr: 0x4060, symBinAddr: 0x100025200, symSize: 0x40 }
  - { offsetInCU: 0x11128, offset: 0x69421, size: 0x8, addend: 0x0, symName: __ZNSt3__122__compressed_pair_elemINS_9allocatorIN2sf6SpriteEEELi1ELb1EEC2B7v160006IS4_vEEOT_, symObjAddr: 0x40C0, symBinAddr: 0x100025240, symSize: 0x10 }
  - { offsetInCU: 0x11183, offset: 0x6947C, size: 0x8, addend: 0x0, symName: __ZNSt3__16vectorIN2sf7Vector2IfEENS_9allocatorIS3_EEE22__construct_one_at_endB7v160006IJRKS3_EEEvDpOT_, symObjAddr: 0x5A90, symBinAddr: 0x100025250, symSize: 0x90 }
  - { offsetInCU: 0x111D2, offset: 0x694CB, size: 0x8, addend: 0x0, symName: __ZNSt3__16vectorIN2sf7Vector2IfEENS_9allocatorIS3_EEE21__push_back_slow_pathIRKS3_EEvOT_, symObjAddr: 0x5B20, symBinAddr: 0x1000252E0, symSize: 0xD0 }
  - { offsetInCU: 0x11230, offset: 0x69529, size: 0x8, addend: 0x0, symName: __ZNSt3__116allocator_traitsINS_9allocatorIN2sf7Vector2IfEEEEE9constructB7v160006IS4_JRKS4_EvEEvRS5_PT_DpOT0_, symObjAddr: 0x5BF0, symBinAddr: 0x1000253B0, symSize: 0x30 }
  - { offsetInCU: 0x11287, offset: 0x69580, size: 0x8, addend: 0x0, symName: __ZNSt3__19allocatorIN2sf7Vector2IfEEE9constructB7v160006IS3_JRKS3_EEEvPT_DpOT0_, symObjAddr: 0x5C20, symBinAddr: 0x1000253E0, symSize: 0x20 }
  - { offsetInCU: 0x112DD, offset: 0x695D6, size: 0x8, addend: 0x0, symName: __ZNKSt3__16vectorIN2sf7Vector2IfEENS_9allocatorIS3_EEE11__recommendB7v160006Em, symObjAddr: 0x5C40, symBinAddr: 0x100025400, symSize: 0xA0 }
  - { offsetInCU: 0x11332, offset: 0x6962B, size: 0x8, addend: 0x0, symName: __ZNSt3__114__split_bufferIN2sf7Vector2IfEERNS_9allocatorIS3_EEEC1EmmS6_, symObjAddr: 0x5CE0, symBinAddr: 0x1000254A0, symSize: 0x40 }
  - { offsetInCU: 0x11388, offset: 0x69681, size: 0x8, addend: 0x0, symName: __ZNSt3__114__split_bufferIN2sf7Vector2IfEERNS_9allocatorIS3_EEED1Ev, symObjAddr: 0x5E50, symBinAddr: 0x100025610, symSize: 0x20 }
  - { offsetInCU: 0x113B4, offset: 0x696AD, size: 0x8, addend: 0x0, symName: __ZNSt3__114__split_bufferIN2sf7Vector2IfEERNS_9allocatorIS3_EEEC2EmmS6_, symObjAddr: 0x5EF0, symBinAddr: 0x100025630, symSize: 0xD0 }
  - { offsetInCU: 0x11427, offset: 0x69720, size: 0x8, addend: 0x0, symName: __ZNSt3__117__compressed_pairIPN2sf7Vector2IfEERNS_9allocatorIS3_EEEC1B7v160006IDnS7_EEOT_OT0_, symObjAddr: 0x5FC0, symBinAddr: 0x100025700, symSize: 0x30 }
  - { offsetInCU: 0x1147F, offset: 0x69778, size: 0x8, addend: 0x0, symName: __ZNSt3__114__split_bufferIN2sf7Vector2IfEERNS_9allocatorIS3_EEE7__allocB7v160006Ev, symObjAddr: 0x5FF0, symBinAddr: 0x100025730, symSize: 0x20 }
  - { offsetInCU: 0x114A5, offset: 0x6979E, size: 0x8, addend: 0x0, symName: __ZNSt3__114__split_bufferIN2sf7Vector2IfEERNS_9allocatorIS3_EEE9__end_capB7v160006Ev, symObjAddr: 0x6010, symBinAddr: 0x100025750, symSize: 0x20 }
  - { offsetInCU: 0x114CB, offset: 0x697C4, size: 0x8, addend: 0x0, symName: __ZNSt3__117__compressed_pairIPN2sf7Vector2IfEERNS_9allocatorIS3_EEEC2B7v160006IDnS7_EEOT_OT0_, symObjAddr: 0x6030, symBinAddr: 0x100025770, symSize: 0x40 }
  - { offsetInCU: 0x11523, offset: 0x6981C, size: 0x8, addend: 0x0, symName: __ZNSt3__122__compressed_pair_elemIRNS_9allocatorIN2sf7Vector2IfEEEELi1ELb0EEC2B7v160006IS6_vEEOT_, symObjAddr: 0x6070, symBinAddr: 0x1000257B0, symSize: 0x20 }
  - { offsetInCU: 0x11565, offset: 0x6985E, size: 0x8, addend: 0x0, symName: __ZNSt3__117__compressed_pairIPN2sf7Vector2IfEERNS_9allocatorIS3_EEE6secondB7v160006Ev, symObjAddr: 0x6090, symBinAddr: 0x1000257D0, symSize: 0x20 }
  - { offsetInCU: 0x1158B, offset: 0x69884, size: 0x8, addend: 0x0, symName: __ZNSt3__122__compressed_pair_elemIRNS_9allocatorIN2sf7Vector2IfEEEELi1ELb0EE5__getB7v160006Ev, symObjAddr: 0x60B0, symBinAddr: 0x1000257F0, symSize: 0x20 }
  - { offsetInCU: 0x115B1, offset: 0x698AA, size: 0x8, addend: 0x0, symName: __ZNSt3__117__compressed_pairIPN2sf7Vector2IfEERNS_9allocatorIS3_EEE5firstB7v160006Ev, symObjAddr: 0x60D0, symBinAddr: 0x100025810, symSize: 0x20 }
  - { offsetInCU: 0x115FA, offset: 0x698F3, size: 0x8, addend: 0x0, symName: __ZNKSt3__111__move_loopINS_17_ClassicAlgPolicyEEclB7v160006INS_16reverse_iteratorIPN2sf7Vector2IfEEEES9_S9_EENS_4pairIT_T1_EESB_T0_SC_, symObjAddr: 0x65F0, symBinAddr: 0x100025D30, symSize: 0xA0 }
  - { offsetInCU: 0x1166A, offset: 0x69963, size: 0x8, addend: 0x0, symName: __ZNSt3__18_IterOpsINS_17_ClassicAlgPolicyEE11__iter_moveB7v160006IRNS_16reverse_iteratorIPN2sf7Vector2IfEEEEEENS_9enable_ifIXsr12is_referenceIDTdeclsr3stdE7declvalIRT_EEEEE5valueEDTclsr3stdE4movedeclsr3stdE7declvalISD_EEEEE4typeEOSC_, symObjAddr: 0x67D0, symBinAddr: 0x100025F10, symSize: 0x20 }
  - { offsetInCU: 0x11696, offset: 0x6998F, size: 0x8, addend: 0x0, symName: __ZNSt3__18_IterOpsINS_17_ClassicAlgPolicyEE25__validate_iter_referenceB7v160006IRNS_16reverse_iteratorIPN2sf7Vector2IfEEEEEEvv, symObjAddr: 0x67F0, symBinAddr: 0x100025F30, symSize: 0x10 }
  - { offsetInCU: 0x116B4, offset: 0x699AD, size: 0x8, addend: 0x0, symName: __ZNSt3__118__unwrap_iter_implINS_16reverse_iteratorIPN2sf7Vector2IfEEEELb0EE8__unwrapB7v160006ES6_, symObjAddr: 0x6800, symBinAddr: 0x100025F40, symSize: 0x20 }
  - { offsetInCU: 0x116DC, offset: 0x699D5, size: 0x8, addend: 0x0, symName: __ZNSt3__14pairINS_16reverse_iteratorIPN2sf7Vector2IfEEEES6_EC1B7v160006IS6_S6_LPv0EEEOT_OT0_, symObjAddr: 0x6820, symBinAddr: 0x100025F60, symSize: 0x30 }
  - { offsetInCU: 0x1173A, offset: 0x69A33, size: 0x8, addend: 0x0, symName: __ZNSt3__14pairINS_16reverse_iteratorIPN2sf7Vector2IfEEEES6_EC2B7v160006IS6_S6_LPv0EEEOT_OT0_, symObjAddr: 0x6850, symBinAddr: 0x100025F90, symSize: 0x40 }
  - { offsetInCU: 0x11798, offset: 0x69A91, size: 0x8, addend: 0x0, symName: __ZNSt3__118__unwrap_iter_implINS_16reverse_iteratorIPN2sf7Vector2IfEEEELb0EE8__rewrapB7v160006ES6_S6_, symObjAddr: 0x6890, symBinAddr: 0x100025FD0, symSize: 0x30 }
  - { offsetInCU: 0x117C6, offset: 0x69ABF, size: 0x8, addend: 0x0, symName: __ZNSt3__114__split_bufferIN2sf7Vector2IfEERNS_9allocatorIS3_EEED2Ev, symObjAddr: 0x68C0, symBinAddr: 0x100026000, symSize: 0x70 }
  - { offsetInCU: 0x117F2, offset: 0x69AEB, size: 0x8, addend: 0x0, symName: __ZNSt3__114__split_bufferIN2sf7Vector2IfEERNS_9allocatorIS3_EEE5clearB7v160006Ev, symObjAddr: 0x6930, symBinAddr: 0x100026070, symSize: 0x20 }
  - { offsetInCU: 0x11818, offset: 0x69B11, size: 0x8, addend: 0x0, symName: __ZNKSt3__114__split_bufferIN2sf7Vector2IfEERNS_9allocatorIS3_EEE8capacityB7v160006Ev, symObjAddr: 0x6950, symBinAddr: 0x100026090, symSize: 0x30 }
  - { offsetInCU: 0x1183E, offset: 0x69B37, size: 0x8, addend: 0x0, symName: __ZNSt3__114__split_bufferIN2sf7Vector2IfEERNS_9allocatorIS3_EEE17__destruct_at_endB7v160006EPS3_, symObjAddr: 0x6980, symBinAddr: 0x1000260C0, symSize: 0x30 }
  - { offsetInCU: 0x11872, offset: 0x69B6B, size: 0x8, addend: 0x0, symName: __ZNSt3__114__split_bufferIN2sf7Vector2IfEERNS_9allocatorIS3_EEE17__destruct_at_endB7v160006EPS3_NS_17integral_constantIbLb0EEE, symObjAddr: 0x69B0, symBinAddr: 0x1000260F0, symSize: 0x80 }
  - { offsetInCU: 0x118B3, offset: 0x69BAC, size: 0x8, addend: 0x0, symName: __ZNKSt3__114__split_bufferIN2sf7Vector2IfEERNS_9allocatorIS3_EEE9__end_capB7v160006Ev, symObjAddr: 0x6A30, symBinAddr: 0x100026170, symSize: 0x20 }
  - { offsetInCU: 0x118D9, offset: 0x69BD2, size: 0x8, addend: 0x0, symName: __ZNKSt3__117__compressed_pairIPN2sf7Vector2IfEERNS_9allocatorIS3_EEE5firstB7v160006Ev, symObjAddr: 0x6A50, symBinAddr: 0x100026190, symSize: 0x20 }
  - { offsetInCU: 0x118FF, offset: 0x69BF8, size: 0x8, addend: 0x0, symName: __ZNSt3__16vectorIN2sf7TextureENS_9allocatorIS2_EEEC2B7v160006Ev, symObjAddr: 0x6A70, symBinAddr: 0x1000261B0, symSize: 0x60 }
  - { offsetInCU: 0x11929, offset: 0x69C22, size: 0x8, addend: 0x0, symName: __ZNSt3__117__compressed_pairIPN2sf7TextureENS_9allocatorIS2_EEEC1B7v160006IDnNS_18__default_init_tagEEEOT_OT0_, symObjAddr: 0x6AD0, symBinAddr: 0x100026210, symSize: 0x30 }
  - { offsetInCU: 0x11981, offset: 0x69C7A, size: 0x8, addend: 0x0, symName: __ZNSt3__117__compressed_pairIPN2sf7TextureENS_9allocatorIS2_EEEC2B7v160006IDnNS_18__default_init_tagEEEOT_OT0_, symObjAddr: 0x6B10, symBinAddr: 0x100026250, symSize: 0x40 }
  - { offsetInCU: 0x119D9, offset: 0x69CD2, size: 0x8, addend: 0x0, symName: __ZNSt3__122__compressed_pair_elemIPN2sf7TextureELi0ELb0EEC2B7v160006IDnvEEOT_, symObjAddr: 0x6B50, symBinAddr: 0x100026290, symSize: 0x20 }
  - { offsetInCU: 0x11A1B, offset: 0x69D14, size: 0x8, addend: 0x0, symName: __ZNSt3__122__compressed_pair_elemINS_9allocatorIN2sf7TextureEEELi1ELb1EEC2B7v160006ENS_18__default_init_tagE, symObjAddr: 0x6B70, symBinAddr: 0x1000262B0, symSize: 0x20 }
  - { offsetInCU: 0x11A50, offset: 0x69D49, size: 0x8, addend: 0x0, symName: __ZNSt3__19allocatorIN2sf7TextureEEC2B7v160006Ev, symObjAddr: 0x6B90, symBinAddr: 0x1000262D0, symSize: 0x20 }
  - { offsetInCU: 0x11A7A, offset: 0x69D73, size: 0x8, addend: 0x0, symName: __ZNSt3__116__non_trivial_ifILb1ENS_9allocatorIN2sf7TextureEEEEC2B7v160006Ev, symObjAddr: 0x6BB0, symBinAddr: 0x1000262F0, symSize: 0x10 }
  - { offsetInCU: 0x11AA4, offset: 0x69D9D, size: 0x8, addend: 0x0, symName: __ZNSt3__16vectorIN2sf7TextureENS_9allocatorIS2_EEED2B7v160006Ev, symObjAddr: 0x6BC0, symBinAddr: 0x100026300, symSize: 0x40 }
  - { offsetInCU: 0x11ACE, offset: 0x69DC7, size: 0x8, addend: 0x0, symName: __ZNSt3__16vectorIN2sf7TextureENS_9allocatorIS2_EEE16__destroy_vectorC1ERS5_, symObjAddr: 0x6C00, symBinAddr: 0x100026340, symSize: 0x30 }
  - { offsetInCU: 0x11B07, offset: 0x69E00, size: 0x8, addend: 0x0, symName: __ZNSt3__16vectorIN2sf7TextureENS_9allocatorIS2_EEE16__destroy_vectorclB7v160006Ev, symObjAddr: 0x6C30, symBinAddr: 0x100026370, symSize: 0x90 }
  - { offsetInCU: 0x11B2D, offset: 0x69E26, size: 0x8, addend: 0x0, symName: __ZNSt3__16vectorIN2sf7TextureENS_9allocatorIS2_EEE16__destroy_vectorC2ERS5_, symObjAddr: 0x6CC0, symBinAddr: 0x100026400, symSize: 0x20 }
  - { offsetInCU: 0x11B66, offset: 0x69E5F, size: 0x8, addend: 0x0, symName: __ZNKSt3__16vectorIN2sf7TextureENS_9allocatorIS2_EEE17__annotate_deleteB7v160006Ev, symObjAddr: 0x6CE0, symBinAddr: 0x100026420, symSize: 0xB0 }
  - { offsetInCU: 0x11B8C, offset: 0x69E85, size: 0x8, addend: 0x0, symName: __ZNSt3__16vectorIN2sf7TextureENS_9allocatorIS2_EEE7__clearB7v160006Ev, symObjAddr: 0x6DA0, symBinAddr: 0x1000264E0, symSize: 0x20 }
  - { offsetInCU: 0x11BB2, offset: 0x69EAB, size: 0x8, addend: 0x0, symName: __ZNSt3__116allocator_traitsINS_9allocatorIN2sf7TextureEEEE10deallocateB7v160006ERS4_PS3_m, symObjAddr: 0x6DC0, symBinAddr: 0x100026500, symSize: 0x30 }
  - { offsetInCU: 0x11BF4, offset: 0x69EED, size: 0x8, addend: 0x0, symName: __ZNSt3__16vectorIN2sf7TextureENS_9allocatorIS2_EEE7__allocB7v160006Ev, symObjAddr: 0x6DF0, symBinAddr: 0x100026530, symSize: 0x20 }
  - { offsetInCU: 0x11C1A, offset: 0x69F13, size: 0x8, addend: 0x0, symName: __ZNKSt3__16vectorIN2sf7TextureENS_9allocatorIS2_EEE8capacityB7v160006Ev, symObjAddr: 0x6E10, symBinAddr: 0x100026550, symSize: 0x40 }
  - { offsetInCU: 0x11C40, offset: 0x69F39, size: 0x8, addend: 0x0, symName: __ZNKSt3__16vectorIN2sf7TextureENS_9allocatorIS2_EEE31__annotate_contiguous_containerB7v160006EPKvS7_S7_S7_, symObjAddr: 0x6E50, symBinAddr: 0x100026590, symSize: 0x20 }
  - { offsetInCU: 0x11C96, offset: 0x69F8F, size: 0x8, addend: 0x0, symName: __ZNKSt3__16vectorIN2sf7TextureENS_9allocatorIS2_EEE4dataB7v160006Ev, symObjAddr: 0x6E70, symBinAddr: 0x1000265B0, symSize: 0x20 }
  - { offsetInCU: 0x11CBC, offset: 0x69FB5, size: 0x8, addend: 0x0, symName: __ZNKSt3__16vectorIN2sf7TextureENS_9allocatorIS2_EEE4sizeB7v160006Ev, symObjAddr: 0x6E90, symBinAddr: 0x1000265D0, symSize: 0x30 }
  - { offsetInCU: 0x11CE2, offset: 0x69FDB, size: 0x8, addend: 0x0, symName: __ZNSt3__16vectorIN2sf7TextureENS_9allocatorIS2_EEE22__base_destruct_at_endB7v160006EPS2_, symObjAddr: 0x6ED0, symBinAddr: 0x100026610, symSize: 0x80 }
  - { offsetInCU: 0x11D26, offset: 0x6A01F, size: 0x8, addend: 0x0, symName: __ZNSt3__116allocator_traitsINS_9allocatorIN2sf7TextureEEEE7destroyB7v160006IS3_vEEvRS4_PT_, symObjAddr: 0x6F50, symBinAddr: 0x100026690, symSize: 0x30 }
  - { offsetInCU: 0x11D63, offset: 0x6A05C, size: 0x8, addend: 0x0, symName: __ZNSt3__19allocatorIN2sf7TextureEE7destroyB7v160006EPS2_, symObjAddr: 0x6F80, symBinAddr: 0x1000266C0, symSize: 0x20 }
  - { offsetInCU: 0x11D97, offset: 0x6A090, size: 0x8, addend: 0x0, symName: __ZNSt3__19allocatorIN2sf7TextureEE10deallocateB7v160006EPS2_m, symObjAddr: 0x6FA0, symBinAddr: 0x1000266E0, symSize: 0x50 }
  - { offsetInCU: 0x11DD9, offset: 0x6A0D2, size: 0x8, addend: 0x0, symName: __ZNSt3__117__compressed_pairIPN2sf7TextureENS_9allocatorIS2_EEE6secondB7v160006Ev, symObjAddr: 0x6FF0, symBinAddr: 0x100026730, symSize: 0x20 }
  - { offsetInCU: 0x11DFF, offset: 0x6A0F8, size: 0x8, addend: 0x0, symName: __ZNSt3__122__compressed_pair_elemINS_9allocatorIN2sf7TextureEEELi1ELb1EE5__getB7v160006Ev, symObjAddr: 0x7010, symBinAddr: 0x100026750, symSize: 0x10 }
  - { offsetInCU: 0x11E25, offset: 0x6A11E, size: 0x8, addend: 0x0, symName: __ZNKSt3__16vectorIN2sf7TextureENS_9allocatorIS2_EEE9__end_capB7v160006Ev, symObjAddr: 0x7020, symBinAddr: 0x100026760, symSize: 0x20 }
  - { offsetInCU: 0x11E4B, offset: 0x6A144, size: 0x8, addend: 0x0, symName: __ZNKSt3__117__compressed_pairIPN2sf7TextureENS_9allocatorIS2_EEE5firstB7v160006Ev, symObjAddr: 0x7040, symBinAddr: 0x100026780, symSize: 0x20 }
  - { offsetInCU: 0x11E71, offset: 0x6A16A, size: 0x8, addend: 0x0, symName: __ZNKSt3__122__compressed_pair_elemIPN2sf7TextureELi0ELb0EE5__getB7v160006Ev, symObjAddr: 0x7060, symBinAddr: 0x1000267A0, symSize: 0x10 }
  - { offsetInCU: 0x11E97, offset: 0x6A190, size: 0x8, addend: 0x0, symName: __ZNKSt3__16vectorIN2sf7TextureENS_9allocatorIS2_EEE17__annotate_shrinkB7v160006Em, symObjAddr: 0x7710, symBinAddr: 0x1000267B0, symSize: 0xA0 }
  - { offsetInCU: 0x11ECC, offset: 0x6A1C5, size: 0x8, addend: 0x0, symName: __ZNSt3__16vectorIN2sf7TextureENS_9allocatorIS2_EEE9__end_capB7v160006Ev, symObjAddr: 0x77C0, symBinAddr: 0x100026860, symSize: 0x20 }
  - { offsetInCU: 0x11EF2, offset: 0x6A1EB, size: 0x8, addend: 0x0, symName: __ZNSt3__16vectorIN2sf7TextureENS_9allocatorIS2_EEE22__construct_one_at_endB7v160006IJRKS2_EEEvDpOT_, symObjAddr: 0x77E0, symBinAddr: 0x100026880, symSize: 0x90 }
  - { offsetInCU: 0x11F41, offset: 0x6A23A, size: 0x8, addend: 0x0, symName: __ZNSt3__16vectorIN2sf7TextureENS_9allocatorIS2_EEE21__push_back_slow_pathIRKS2_EEvOT_, symObjAddr: 0x7870, symBinAddr: 0x100026910, symSize: 0xD0 }
  - { offsetInCU: 0x11F9F, offset: 0x6A298, size: 0x8, addend: 0x0, symName: __ZNSt3__117__compressed_pairIPN2sf7TextureENS_9allocatorIS2_EEE5firstB7v160006Ev, symObjAddr: 0x7940, symBinAddr: 0x1000269E0, symSize: 0x20 }
  - { offsetInCU: 0x11FC5, offset: 0x6A2BE, size: 0x8, addend: 0x0, symName: __ZNSt3__122__compressed_pair_elemIPN2sf7TextureELi0ELb0EE5__getB7v160006Ev, symObjAddr: 0x7960, symBinAddr: 0x100026A00, symSize: 0x10 }
  - { offsetInCU: 0x12004, offset: 0x6A2FD, size: 0x8, addend: 0x0, symName: __ZNSt3__16vectorIN2sf7TextureENS_9allocatorIS2_EEE21_ConstructTransactionC1B7v160006ERS5_m, symObjAddr: 0x7970, symBinAddr: 0x100026A10, symSize: 0x30 }
  - { offsetInCU: 0x1204C, offset: 0x6A345, size: 0x8, addend: 0x0, symName: __ZNSt3__116allocator_traitsINS_9allocatorIN2sf7TextureEEEE9constructB7v160006IS3_JRKS3_EvEEvRS4_PT_DpOT0_, symObjAddr: 0x79A0, symBinAddr: 0x100026A40, symSize: 0x30 }
  - { offsetInCU: 0x120A3, offset: 0x6A39C, size: 0x8, addend: 0x0, symName: __ZNSt3__16vectorIN2sf7TextureENS_9allocatorIS2_EEE21_ConstructTransactionD1B7v160006Ev, symObjAddr: 0x79D0, symBinAddr: 0x100026A70, symSize: 0x20 }
  - { offsetInCU: 0x120CD, offset: 0x6A3C6, size: 0x8, addend: 0x0, symName: __ZNSt3__16vectorIN2sf7TextureENS_9allocatorIS2_EEE21_ConstructTransactionC2B7v160006ERS5_m, symObjAddr: 0x79F0, symBinAddr: 0x100026A90, symSize: 0x40 }
  - { offsetInCU: 0x12115, offset: 0x6A40E, size: 0x8, addend: 0x0, symName: __ZNSt3__19allocatorIN2sf7TextureEE9constructB7v160006IS2_JRKS2_EEEvPT_DpOT0_, symObjAddr: 0x7A30, symBinAddr: 0x100026AD0, symSize: 0x30 }
  - { offsetInCU: 0x1216B, offset: 0x6A464, size: 0x8, addend: 0x0, symName: __ZNSt3__16vectorIN2sf7TextureENS_9allocatorIS2_EEE21_ConstructTransactionD2B7v160006Ev, symObjAddr: 0x7A60, symBinAddr: 0x100026B00, symSize: 0x20 }
  - { offsetInCU: 0x12195, offset: 0x6A48E, size: 0x8, addend: 0x0, symName: __ZNKSt3__16vectorIN2sf7TextureENS_9allocatorIS2_EEE11__recommendB7v160006Em, symObjAddr: 0x7A80, symBinAddr: 0x100026B20, symSize: 0xA0 }
  - { offsetInCU: 0x121EA, offset: 0x6A4E3, size: 0x8, addend: 0x0, symName: __ZNSt3__114__split_bufferIN2sf7TextureERNS_9allocatorIS2_EEEC1EmmS5_, symObjAddr: 0x7B20, symBinAddr: 0x100026BC0, symSize: 0x40 }
  - { offsetInCU: 0x12240, offset: 0x6A539, size: 0x8, addend: 0x0, symName: __ZNSt3__114__split_bufferIN2sf7TextureERNS_9allocatorIS2_EEED1Ev, symObjAddr: 0x7C90, symBinAddr: 0x100026D30, symSize: 0x20 }
  - { offsetInCU: 0x1226C, offset: 0x6A565, size: 0x8, addend: 0x0, symName: __ZNKSt3__16vectorIN2sf7TextureENS_9allocatorIS2_EEE8max_sizeEv, symObjAddr: 0x7CB0, symBinAddr: 0x100026D50, symSize: 0x60 }
  - { offsetInCU: 0x12294, offset: 0x6A58D, size: 0x8, addend: 0x0, symName: __ZNKSt3__16vectorIN2sf7TextureENS_9allocatorIS2_EEE20__throw_length_errorB7v160006Ev, symObjAddr: 0x7D10, symBinAddr: 0x100026DB0, symSize: 0x20 }
  - { offsetInCU: 0x122C4, offset: 0x6A5BD, size: 0x8, addend: 0x0, symName: __ZNSt3__116allocator_traitsINS_9allocatorIN2sf7TextureEEEE8max_sizeB7v160006IS4_vEEmRKS4_, symObjAddr: 0x7D30, symBinAddr: 0x100026DD0, symSize: 0x20 }
  - { offsetInCU: 0x122F2, offset: 0x6A5EB, size: 0x8, addend: 0x0, symName: __ZNKSt3__16vectorIN2sf7TextureENS_9allocatorIS2_EEE7__allocB7v160006Ev, symObjAddr: 0x7D50, symBinAddr: 0x100026DF0, symSize: 0x20 }
  - { offsetInCU: 0x12318, offset: 0x6A611, size: 0x8, addend: 0x0, symName: __ZNKSt3__19allocatorIN2sf7TextureEE8max_sizeB7v160006Ev, symObjAddr: 0x7D70, symBinAddr: 0x100026E10, symSize: 0x20 }
  - { offsetInCU: 0x1233E, offset: 0x6A637, size: 0x8, addend: 0x0, symName: __ZNKSt3__117__compressed_pairIPN2sf7TextureENS_9allocatorIS2_EEE6secondB7v160006Ev, symObjAddr: 0x7D90, symBinAddr: 0x100026E30, symSize: 0x20 }
  - { offsetInCU: 0x12364, offset: 0x6A65D, size: 0x8, addend: 0x0, symName: __ZNKSt3__122__compressed_pair_elemINS_9allocatorIN2sf7TextureEEELi1ELb1EE5__getB7v160006Ev, symObjAddr: 0x7DB0, symBinAddr: 0x100026E50, symSize: 0x10 }
  - { offsetInCU: 0x1238A, offset: 0x6A683, size: 0x8, addend: 0x0, symName: __ZNSt3__114__split_bufferIN2sf7TextureERNS_9allocatorIS2_EEEC2EmmS5_, symObjAddr: 0x7DC0, symBinAddr: 0x100026E60, symSize: 0xC0 }
  - { offsetInCU: 0x123FD, offset: 0x6A6F6, size: 0x8, addend: 0x0, symName: __ZNSt3__117__compressed_pairIPN2sf7TextureERNS_9allocatorIS2_EEEC1B7v160006IDnS6_EEOT_OT0_, symObjAddr: 0x7E80, symBinAddr: 0x100026F20, symSize: 0x30 }
  - { offsetInCU: 0x12455, offset: 0x6A74E, size: 0x8, addend: 0x0, symName: __ZNSt3__114__split_bufferIN2sf7TextureERNS_9allocatorIS2_EEE7__allocB7v160006Ev, symObjAddr: 0x7EF0, symBinAddr: 0x100026F90, symSize: 0x20 }
  - { offsetInCU: 0x1247B, offset: 0x6A774, size: 0x8, addend: 0x0, symName: __ZNSt3__114__split_bufferIN2sf7TextureERNS_9allocatorIS2_EEE9__end_capB7v160006Ev, symObjAddr: 0x7F10, symBinAddr: 0x100026FB0, symSize: 0x20 }
  - { offsetInCU: 0x124A1, offset: 0x6A79A, size: 0x8, addend: 0x0, symName: __ZNSt3__117__compressed_pairIPN2sf7TextureERNS_9allocatorIS2_EEEC2B7v160006IDnS6_EEOT_OT0_, symObjAddr: 0x7F30, symBinAddr: 0x100026FD0, symSize: 0x40 }
  - { offsetInCU: 0x124F9, offset: 0x6A7F2, size: 0x8, addend: 0x0, symName: __ZNSt3__122__compressed_pair_elemIRNS_9allocatorIN2sf7TextureEEELi1ELb0EEC2B7v160006IS5_vEEOT_, symObjAddr: 0x7F70, symBinAddr: 0x100027010, symSize: 0x20 }
  - { offsetInCU: 0x1253B, offset: 0x6A834, size: 0x8, addend: 0x0, symName: __ZNSt3__19allocatorIN2sf7TextureEE8allocateB7v160006Em, symObjAddr: 0x7F90, symBinAddr: 0x100027030, symSize: 0x50 }
  - { offsetInCU: 0x1256F, offset: 0x6A868, size: 0x8, addend: 0x0, symName: __ZNSt3__117__compressed_pairIPN2sf7TextureERNS_9allocatorIS2_EEE6secondB7v160006Ev, symObjAddr: 0x7FE0, symBinAddr: 0x100027080, symSize: 0x20 }
  - { offsetInCU: 0x12595, offset: 0x6A88E, size: 0x8, addend: 0x0, symName: __ZNSt3__122__compressed_pair_elemIRNS_9allocatorIN2sf7TextureEEELi1ELb0EE5__getB7v160006Ev, symObjAddr: 0x8000, symBinAddr: 0x1000270A0, symSize: 0x20 }
  - { offsetInCU: 0x125BB, offset: 0x6A8B4, size: 0x8, addend: 0x0, symName: __ZNSt3__117__compressed_pairIPN2sf7TextureERNS_9allocatorIS2_EEE5firstB7v160006Ev, symObjAddr: 0x8020, symBinAddr: 0x1000270C0, symSize: 0x20 }
  - { offsetInCU: 0x125E1, offset: 0x6A8DA, size: 0x8, addend: 0x0, symName: __ZNSt3__116reverse_iteratorIPN2sf7TextureEEC1B7v160006ES3_, symObjAddr: 0x81C0, symBinAddr: 0x100027260, symSize: 0x30 }
  - { offsetInCU: 0x12619, offset: 0x6A912, size: 0x8, addend: 0x0, symName: __ZNKSt3__116reverse_iteratorIPN2sf7TextureEE4baseB7v160006Ev, symObjAddr: 0x81F0, symBinAddr: 0x100027290, symSize: 0x20 }
  - { offsetInCU: 0x1263F, offset: 0x6A938, size: 0x8, addend: 0x0, symName: __ZNKSt3__16vectorIN2sf7TextureENS_9allocatorIS2_EEE14__annotate_newB7v160006Em, symObjAddr: 0x8250, symBinAddr: 0x1000272F0, symSize: 0xA0 }
  - { offsetInCU: 0x12674, offset: 0x6A96D, size: 0x8, addend: 0x0, symName: __ZNSt3__129_AllocatorDestroyRangeReverseINS_9allocatorIN2sf7TextureEEENS_16reverse_iteratorIPS3_EEEC1B7v160006ERS4_RS7_SA_, symObjAddr: 0x8350, symBinAddr: 0x1000273F0, symSize: 0x40 }
  - { offsetInCU: 0x126CB, offset: 0x6A9C4, size: 0x8, addend: 0x0, symName: __ZNKSt3__116reverse_iteratorIPN2sf7TextureEEdeB7v160006Ev, symObjAddr: 0x83F0, symBinAddr: 0x100027490, symSize: 0x30 }
  - { offsetInCU: 0x12700, offset: 0x6A9F9, size: 0x8, addend: 0x0, symName: __ZNSt3__116reverse_iteratorIPN2sf7TextureEEppB7v160006Ev, symObjAddr: 0x8420, symBinAddr: 0x1000274C0, symSize: 0x20 }
  - { offsetInCU: 0x12726, offset: 0x6AA1F, size: 0x8, addend: 0x0, symName: __ZNSt3__128__exception_guard_exceptionsINS_29_AllocatorDestroyRangeReverseINS_9allocatorIN2sf7TextureEEENS_16reverse_iteratorIPS4_EEEEE10__completeB7v160006Ev, symObjAddr: 0x8440, symBinAddr: 0x1000274E0, symSize: 0x20 }
  - { offsetInCU: 0x1274C, offset: 0x6AA45, size: 0x8, addend: 0x0, symName: __ZNSt3__128__exception_guard_exceptionsINS_29_AllocatorDestroyRangeReverseINS_9allocatorIN2sf7TextureEEENS_16reverse_iteratorIPS4_EEEEED1B7v160006Ev, symObjAddr: 0x8460, symBinAddr: 0x100027500, symSize: 0x20 }
  - { offsetInCU: 0x12776, offset: 0x6AA6F, size: 0x8, addend: 0x0, symName: __ZNSt3__128__exception_guard_exceptionsINS_29_AllocatorDestroyRangeReverseINS_9allocatorIN2sf7TextureEEENS_16reverse_iteratorIPS4_EEEEEC1B7v160006ES9_, symObjAddr: 0x8480, symBinAddr: 0x100027520, symSize: 0x40 }
  - { offsetInCU: 0x127AE, offset: 0x6AAA7, size: 0x8, addend: 0x0, symName: __ZNSt3__128__exception_guard_exceptionsINS_29_AllocatorDestroyRangeReverseINS_9allocatorIN2sf7TextureEEENS_16reverse_iteratorIPS4_EEEEEC2B7v160006ES9_, symObjAddr: 0x84C0, symBinAddr: 0x100027560, symSize: 0x30 }
  - { offsetInCU: 0x127E6, offset: 0x6AADF, size: 0x8, addend: 0x0, symName: __ZNSt3__129_AllocatorDestroyRangeReverseINS_9allocatorIN2sf7TextureEEENS_16reverse_iteratorIPS3_EEEC2B7v160006ERS4_RS7_SA_, symObjAddr: 0x84F0, symBinAddr: 0x100027590, symSize: 0x40 }
  - { offsetInCU: 0x12842, offset: 0x6AB3B, size: 0x8, addend: 0x0, symName: __ZNSt3__119__to_address_helperINS_16reverse_iteratorIPN2sf7TextureEEEvE6__callB7v160006ERKS5_, symObjAddr: 0x8530, symBinAddr: 0x1000275D0, symSize: 0x40 }
  - { offsetInCU: 0x12865, offset: 0x6AB5E, size: 0x8, addend: 0x0, symName: __ZNKSt3__116reverse_iteratorIPN2sf7TextureEEptB7v160006Ev, symObjAddr: 0x8570, symBinAddr: 0x100027610, symSize: 0x20 }
  - { offsetInCU: 0x1288B, offset: 0x6AB84, size: 0x8, addend: 0x0, symName: __ZNSt3__128__exception_guard_exceptionsINS_29_AllocatorDestroyRangeReverseINS_9allocatorIN2sf7TextureEEENS_16reverse_iteratorIPS4_EEEEED2B7v160006Ev, symObjAddr: 0x8590, symBinAddr: 0x100027630, symSize: 0x40 }
  - { offsetInCU: 0x128B5, offset: 0x6ABAE, size: 0x8, addend: 0x0, symName: __ZNKSt3__129_AllocatorDestroyRangeReverseINS_9allocatorIN2sf7TextureEEENS_16reverse_iteratorIPS3_EEEclB7v160006Ev, symObjAddr: 0x85D0, symBinAddr: 0x100027670, symSize: 0xF0 }
  - { offsetInCU: 0x128DC, offset: 0x6ABD5, size: 0x8, addend: 0x0, symName: __ZNSt3__116reverse_iteratorINS0_IPN2sf7TextureEEEEC1B7v160006ES4_, symObjAddr: 0x8730, symBinAddr: 0x1000277D0, symSize: 0x30 }
  - { offsetInCU: 0x12914, offset: 0x6AC0D, size: 0x8, addend: 0x0, symName: __ZNSt3__116reverse_iteratorINS0_IPN2sf7TextureEEEEppB7v160006Ev, symObjAddr: 0x87D0, symBinAddr: 0x100027870, symSize: 0x30 }
  - { offsetInCU: 0x1293A, offset: 0x6AC33, size: 0x8, addend: 0x0, symName: __ZNKSt3__116reverse_iteratorINS0_IPN2sf7TextureEEEE4baseB7v160006Ev, symObjAddr: 0x8800, symBinAddr: 0x1000278A0, symSize: 0x20 }
  - { offsetInCU: 0x12965, offset: 0x6AC5E, size: 0x8, addend: 0x0, symName: __ZNSt3__119__to_address_helperINS_16reverse_iteratorINS1_IPN2sf7TextureEEEEEvE6__callB7v160006ERKS6_, symObjAddr: 0x8820, symBinAddr: 0x1000278C0, symSize: 0x40 }
  - { offsetInCU: 0x12988, offset: 0x6AC81, size: 0x8, addend: 0x0, symName: __ZNKSt3__116reverse_iteratorINS0_IPN2sf7TextureEEEEptB7v160006Ev, symObjAddr: 0x8860, symBinAddr: 0x100027900, symSize: 0x20 }
  - { offsetInCU: 0x129AE, offset: 0x6ACA7, size: 0x8, addend: 0x0, symName: __ZNKSt3__116reverse_iteratorINS0_IPN2sf7TextureEEEEdeB7v160006Ev, symObjAddr: 0x8880, symBinAddr: 0x100027920, symSize: 0x40 }
  - { offsetInCU: 0x129E3, offset: 0x6ACDC, size: 0x8, addend: 0x0, symName: __ZNSt3__116reverse_iteratorIPN2sf7TextureEEmmB7v160006Ev, symObjAddr: 0x88C0, symBinAddr: 0x100027960, symSize: 0x20 }
  - { offsetInCU: 0x12A09, offset: 0x6AD02, size: 0x8, addend: 0x0, symName: __ZNSt3__116reverse_iteratorINS0_IPN2sf7TextureEEEEC2B7v160006ES4_, symObjAddr: 0x88E0, symBinAddr: 0x100027980, symSize: 0x40 }
  - { offsetInCU: 0x12A41, offset: 0x6AD3A, size: 0x8, addend: 0x0, symName: __ZNSt3__116reverse_iteratorIPN2sf7TextureEEC2B7v160006ES3_, symObjAddr: 0x8920, symBinAddr: 0x1000279C0, symSize: 0x30 }
  - { offsetInCU: 0x12A79, offset: 0x6AD72, size: 0x8, addend: 0x0, symName: __ZNSt3__114__split_bufferIN2sf7TextureERNS_9allocatorIS2_EEED2Ev, symObjAddr: 0x8950, symBinAddr: 0x1000279F0, symSize: 0x70 }
  - { offsetInCU: 0x12AA5, offset: 0x6AD9E, size: 0x8, addend: 0x0, symName: __ZNSt3__114__split_bufferIN2sf7TextureERNS_9allocatorIS2_EEE5clearB7v160006Ev, symObjAddr: 0x89C0, symBinAddr: 0x100027A60, symSize: 0x20 }
  - { offsetInCU: 0x12ACB, offset: 0x6ADC4, size: 0x8, addend: 0x0, symName: __ZNKSt3__114__split_bufferIN2sf7TextureERNS_9allocatorIS2_EEE8capacityB7v160006Ev, symObjAddr: 0x89E0, symBinAddr: 0x100027A80, symSize: 0x40 }
  - { offsetInCU: 0x12AF1, offset: 0x6ADEA, size: 0x8, addend: 0x0, symName: __ZNSt3__114__split_bufferIN2sf7TextureERNS_9allocatorIS2_EEE17__destruct_at_endB7v160006EPS2_, symObjAddr: 0x8A20, symBinAddr: 0x100027AC0, symSize: 0x30 }
  - { offsetInCU: 0x12B25, offset: 0x6AE1E, size: 0x8, addend: 0x0, symName: __ZNSt3__114__split_bufferIN2sf7TextureERNS_9allocatorIS2_EEE17__destruct_at_endB7v160006EPS2_NS_17integral_constantIbLb0EEE, symObjAddr: 0x8A50, symBinAddr: 0x100027AF0, symSize: 0x80 }
  - { offsetInCU: 0x12B66, offset: 0x6AE5F, size: 0x8, addend: 0x0, symName: __ZNKSt3__114__split_bufferIN2sf7TextureERNS_9allocatorIS2_EEE9__end_capB7v160006Ev, symObjAddr: 0x8AD0, symBinAddr: 0x100027B70, symSize: 0x20 }
  - { offsetInCU: 0x12B8C, offset: 0x6AE85, size: 0x8, addend: 0x0, symName: __ZNKSt3__117__compressed_pairIPN2sf7TextureERNS_9allocatorIS2_EEE5firstB7v160006Ev, symObjAddr: 0x8AF0, symBinAddr: 0x100027B90, symSize: 0x20 }
  - { offsetInCU: 0x12BB2, offset: 0x6AEAB, size: 0x8, addend: 0x0, symName: __ZNSt3__16vectorIN2sf6SpriteENS_9allocatorIS2_EEE22__construct_one_at_endB7v160006IJRKS2_EEEvDpOT_, symObjAddr: 0x8B10, symBinAddr: 0x100027BB0, symSize: 0x90 }
  - { offsetInCU: 0x12C01, offset: 0x6AEFA, size: 0x8, addend: 0x0, symName: __ZNSt3__16vectorIN2sf6SpriteENS_9allocatorIS2_EEE21__push_back_slow_pathIRKS2_EEvOT_, symObjAddr: 0x8BA0, symBinAddr: 0x100027C40, symSize: 0xD0 }
  - { offsetInCU: 0x12C5F, offset: 0x6AF58, size: 0x8, addend: 0x0, symName: __ZNSt3__116allocator_traitsINS_9allocatorIN2sf6SpriteEEEE9constructB7v160006IS3_JRKS3_EvEEvRS4_PT_DpOT0_, symObjAddr: 0x8C70, symBinAddr: 0x100027D10, symSize: 0x30 }
  - { offsetInCU: 0x12CB6, offset: 0x6AFAF, size: 0x8, addend: 0x0, symName: __ZNSt3__19allocatorIN2sf6SpriteEE9constructB7v160006IS2_JRKS2_EEEvPT_DpOT0_, symObjAddr: 0x8CA0, symBinAddr: 0x100027D40, symSize: 0x30 }
  - { offsetInCU: 0x12D0C, offset: 0x6B005, size: 0x8, addend: 0x0, symName: __ZNSt3__114__split_bufferIN2sf6SpriteERNS_9allocatorIS2_EEEC1EmmS5_, symObjAddr: 0x8D70, symBinAddr: 0x100027D70, symSize: 0x40 }
  - { offsetInCU: 0x12D62, offset: 0x6B05B, size: 0x8, addend: 0x0, symName: __ZNSt3__114__split_bufferIN2sf6SpriteERNS_9allocatorIS2_EEED1Ev, symObjAddr: 0x8EE0, symBinAddr: 0x100027EE0, symSize: 0x20 }
  - { offsetInCU: 0x12D8E, offset: 0x6B087, size: 0x8, addend: 0x0, symName: __ZNSt3__114__split_bufferIN2sf6SpriteERNS_9allocatorIS2_EEEC2EmmS5_, symObjAddr: 0x8F00, symBinAddr: 0x100027F00, symSize: 0xD0 }
  - { offsetInCU: 0x12E01, offset: 0x6B0FA, size: 0x8, addend: 0x0, symName: __ZNSt3__117__compressed_pairIPN2sf6SpriteERNS_9allocatorIS2_EEEC1B7v160006IDnS6_EEOT_OT0_, symObjAddr: 0x8FD0, symBinAddr: 0x100027FD0, symSize: 0x30 }
  - { offsetInCU: 0x12E59, offset: 0x6B152, size: 0x8, addend: 0x0, symName: __ZNSt3__114__split_bufferIN2sf6SpriteERNS_9allocatorIS2_EEE7__allocB7v160006Ev, symObjAddr: 0x9000, symBinAddr: 0x100028000, symSize: 0x20 }
  - { offsetInCU: 0x12E7F, offset: 0x6B178, size: 0x8, addend: 0x0, symName: __ZNSt3__114__split_bufferIN2sf6SpriteERNS_9allocatorIS2_EEE9__end_capB7v160006Ev, symObjAddr: 0x9020, symBinAddr: 0x100028020, symSize: 0x20 }
  - { offsetInCU: 0x12EA5, offset: 0x6B19E, size: 0x8, addend: 0x0, symName: __ZNSt3__117__compressed_pairIPN2sf6SpriteERNS_9allocatorIS2_EEEC2B7v160006IDnS6_EEOT_OT0_, symObjAddr: 0x9040, symBinAddr: 0x100028040, symSize: 0x40 }
  - { offsetInCU: 0x12EFD, offset: 0x6B1F6, size: 0x8, addend: 0x0, symName: __ZNSt3__122__compressed_pair_elemIRNS_9allocatorIN2sf6SpriteEEELi1ELb0EEC2B7v160006IS5_vEEOT_, symObjAddr: 0x9080, symBinAddr: 0x100028080, symSize: 0x20 }
  - { offsetInCU: 0x12F3F, offset: 0x6B238, size: 0x8, addend: 0x0, symName: __ZNSt3__117__compressed_pairIPN2sf6SpriteERNS_9allocatorIS2_EEE6secondB7v160006Ev, symObjAddr: 0x90A0, symBinAddr: 0x1000280A0, symSize: 0x20 }
  - { offsetInCU: 0x12F65, offset: 0x6B25E, size: 0x8, addend: 0x0, symName: __ZNSt3__122__compressed_pair_elemIRNS_9allocatorIN2sf6SpriteEEELi1ELb0EE5__getB7v160006Ev, symObjAddr: 0x90C0, symBinAddr: 0x1000280C0, symSize: 0x20 }
  - { offsetInCU: 0x12F8B, offset: 0x6B284, size: 0x8, addend: 0x0, symName: __ZNSt3__117__compressed_pairIPN2sf6SpriteERNS_9allocatorIS2_EEE5firstB7v160006Ev, symObjAddr: 0x90E0, symBinAddr: 0x1000280E0, symSize: 0x20 }
  - { offsetInCU: 0x12FB1, offset: 0x6B2AA, size: 0x8, addend: 0x0, symName: __ZNSt3__129_AllocatorDestroyRangeReverseINS_9allocatorIN2sf6SpriteEEENS_16reverse_iteratorIPS3_EEEC1B7v160006ERS4_RS7_SA_, symObjAddr: 0x9310, symBinAddr: 0x100028310, symSize: 0x40 }
  - { offsetInCU: 0x1300D, offset: 0x6B306, size: 0x8, addend: 0x0, symName: __ZNSt3__116allocator_traitsINS_9allocatorIN2sf6SpriteEEEE9constructB7v160006IS3_JS3_EvEEvRS4_PT_DpOT0_, symObjAddr: 0x9350, symBinAddr: 0x100028350, symSize: 0x30 }
  - { offsetInCU: 0x13064, offset: 0x6B35D, size: 0x8, addend: 0x0, symName: __ZNSt3__128__exception_guard_exceptionsINS_29_AllocatorDestroyRangeReverseINS_9allocatorIN2sf6SpriteEEENS_16reverse_iteratorIPS4_EEEEE10__completeB7v160006Ev, symObjAddr: 0x9380, symBinAddr: 0x100028380, symSize: 0x20 }
  - { offsetInCU: 0x1308A, offset: 0x6B383, size: 0x8, addend: 0x0, symName: __ZNSt3__128__exception_guard_exceptionsINS_29_AllocatorDestroyRangeReverseINS_9allocatorIN2sf6SpriteEEENS_16reverse_iteratorIPS4_EEEEED1B7v160006Ev, symObjAddr: 0x93A0, symBinAddr: 0x1000283A0, symSize: 0x20 }
  - { offsetInCU: 0x130B4, offset: 0x6B3AD, size: 0x8, addend: 0x0, symName: __ZNSt3__128__exception_guard_exceptionsINS_29_AllocatorDestroyRangeReverseINS_9allocatorIN2sf6SpriteEEENS_16reverse_iteratorIPS4_EEEEEC1B7v160006ES9_, symObjAddr: 0x93C0, symBinAddr: 0x1000283C0, symSize: 0x40 }
  - { offsetInCU: 0x130EC, offset: 0x6B3E5, size: 0x8, addend: 0x0, symName: __ZNSt3__128__exception_guard_exceptionsINS_29_AllocatorDestroyRangeReverseINS_9allocatorIN2sf6SpriteEEENS_16reverse_iteratorIPS4_EEEEEC2B7v160006ES9_, symObjAddr: 0x9400, symBinAddr: 0x100028400, symSize: 0x30 }
  - { offsetInCU: 0x13124, offset: 0x6B41D, size: 0x8, addend: 0x0, symName: __ZNSt3__129_AllocatorDestroyRangeReverseINS_9allocatorIN2sf6SpriteEEENS_16reverse_iteratorIPS3_EEEC2B7v160006ERS4_RS7_SA_, symObjAddr: 0x9430, symBinAddr: 0x100028430, symSize: 0x40 }
  - { offsetInCU: 0x1317B, offset: 0x6B474, size: 0x8, addend: 0x0, symName: __ZNSt3__19allocatorIN2sf6SpriteEE9constructB7v160006IS2_JS2_EEEvPT_DpOT0_, symObjAddr: 0x9470, symBinAddr: 0x100028470, symSize: 0x30 }
  - { offsetInCU: 0x131D1, offset: 0x6B4CA, size: 0x8, addend: 0x0, symName: __ZN2sf6SpriteC1EOS0_, symObjAddr: 0x94A0, symBinAddr: 0x1000284A0, symSize: 0x30 }
  - { offsetInCU: 0x13206, offset: 0x6B4FF, size: 0x8, addend: 0x0, symName: __ZN2sf6SpriteC2EOS0_, symObjAddr: 0x94D0, symBinAddr: 0x1000284D0, symSize: 0x80 }
  - { offsetInCU: 0x1323B, offset: 0x6B534, size: 0x8, addend: 0x0, symName: __ZNSt3__128__exception_guard_exceptionsINS_29_AllocatorDestroyRangeReverseINS_9allocatorIN2sf6SpriteEEENS_16reverse_iteratorIPS4_EEEEED2B7v160006Ev, symObjAddr: 0x9550, symBinAddr: 0x100028550, symSize: 0x40 }
  - { offsetInCU: 0x13265, offset: 0x6B55E, size: 0x8, addend: 0x0, symName: __ZNKSt3__129_AllocatorDestroyRangeReverseINS_9allocatorIN2sf6SpriteEEENS_16reverse_iteratorIPS3_EEEclB7v160006Ev, symObjAddr: 0x9590, symBinAddr: 0x100028590, symSize: 0xF0 }
  - { offsetInCU: 0x1328C, offset: 0x6B585, size: 0x8, addend: 0x0, symName: __ZNSt3__116reverse_iteratorINS0_IPN2sf6SpriteEEEEC1B7v160006ES4_, symObjAddr: 0x96F0, symBinAddr: 0x1000286F0, symSize: 0x30 }
  - { offsetInCU: 0x132C4, offset: 0x6B5BD, size: 0x8, addend: 0x0, symName: __ZNSt3__116reverse_iteratorINS0_IPN2sf6SpriteEEEEppB7v160006Ev, symObjAddr: 0x9790, symBinAddr: 0x100028790, symSize: 0x30 }
  - { offsetInCU: 0x132EA, offset: 0x6B5E3, size: 0x8, addend: 0x0, symName: __ZNKSt3__116reverse_iteratorINS0_IPN2sf6SpriteEEEE4baseB7v160006Ev, symObjAddr: 0x97C0, symBinAddr: 0x1000287C0, symSize: 0x20 }
  - { offsetInCU: 0x13315, offset: 0x6B60E, size: 0x8, addend: 0x0, symName: __ZNSt3__119__to_address_helperINS_16reverse_iteratorINS1_IPN2sf6SpriteEEEEEvE6__callB7v160006ERKS6_, symObjAddr: 0x97E0, symBinAddr: 0x1000287E0, symSize: 0x40 }
  - { offsetInCU: 0x13338, offset: 0x6B631, size: 0x8, addend: 0x0, symName: __ZNKSt3__116reverse_iteratorINS0_IPN2sf6SpriteEEEEptB7v160006Ev, symObjAddr: 0x9820, symBinAddr: 0x100028820, symSize: 0x20 }
  - { offsetInCU: 0x1335E, offset: 0x6B657, size: 0x8, addend: 0x0, symName: __ZNKSt3__116reverse_iteratorINS0_IPN2sf6SpriteEEEEdeB7v160006Ev, symObjAddr: 0x9840, symBinAddr: 0x100028840, symSize: 0x40 }
  - { offsetInCU: 0x13393, offset: 0x6B68C, size: 0x8, addend: 0x0, symName: __ZNSt3__116reverse_iteratorIPN2sf6SpriteEEmmB7v160006Ev, symObjAddr: 0x9880, symBinAddr: 0x100028880, symSize: 0x20 }
  - { offsetInCU: 0x133B9, offset: 0x6B6B2, size: 0x8, addend: 0x0, symName: __ZNSt3__116reverse_iteratorINS0_IPN2sf6SpriteEEEEC2B7v160006ES4_, symObjAddr: 0x98A0, symBinAddr: 0x1000288A0, symSize: 0x40 }
  - { offsetInCU: 0x133F1, offset: 0x6B6EA, size: 0x8, addend: 0x0, symName: __ZNSt3__114__split_bufferIN2sf6SpriteERNS_9allocatorIS2_EEED2Ev, symObjAddr: 0x98E0, symBinAddr: 0x1000288E0, symSize: 0x70 }
  - { offsetInCU: 0x1341D, offset: 0x6B716, size: 0x8, addend: 0x0, symName: __ZNSt3__114__split_bufferIN2sf6SpriteERNS_9allocatorIS2_EEE5clearB7v160006Ev, symObjAddr: 0x9950, symBinAddr: 0x100028950, symSize: 0x20 }
  - { offsetInCU: 0x13443, offset: 0x6B73C, size: 0x8, addend: 0x0, symName: __ZNKSt3__114__split_bufferIN2sf6SpriteERNS_9allocatorIS2_EEE8capacityB7v160006Ev, symObjAddr: 0x9970, symBinAddr: 0x100028970, symSize: 0x40 }
  - { offsetInCU: 0x13469, offset: 0x6B762, size: 0x8, addend: 0x0, symName: __ZNSt3__114__split_bufferIN2sf6SpriteERNS_9allocatorIS2_EEE17__destruct_at_endB7v160006EPS2_, symObjAddr: 0x99B0, symBinAddr: 0x1000289B0, symSize: 0x30 }
  - { offsetInCU: 0x1349D, offset: 0x6B796, size: 0x8, addend: 0x0, symName: __ZNSt3__114__split_bufferIN2sf6SpriteERNS_9allocatorIS2_EEE17__destruct_at_endB7v160006EPS2_NS_17integral_constantIbLb0EEE, symObjAddr: 0x99E0, symBinAddr: 0x1000289E0, symSize: 0x80 }
  - { offsetInCU: 0x134DE, offset: 0x6B7D7, size: 0x8, addend: 0x0, symName: __ZNKSt3__114__split_bufferIN2sf6SpriteERNS_9allocatorIS2_EEE9__end_capB7v160006Ev, symObjAddr: 0x9A60, symBinAddr: 0x100028A60, symSize: 0x20 }
  - { offsetInCU: 0x13504, offset: 0x6B7FD, size: 0x8, addend: 0x0, symName: __ZNKSt3__117__compressed_pairIPN2sf6SpriteERNS_9allocatorIS2_EEE5firstB7v160006Ev, symObjAddr: 0x9A80, symBinAddr: 0x100028A80, symSize: 0x1B }
...
